
kernel/kernel:     file format elf64-littleriscv


Disassembly of section .text:

0000000080000000 <_entry>:
    80000000:	00008117          	auipc	sp,0x8
    80000004:	ab010113          	addi	sp,sp,-1360 # 80007ab0 <stack0>
    80000008:	6505                	lui	a0,0x1
    8000000a:	f14025f3          	csrr	a1,mhartid
    8000000e:	0585                	addi	a1,a1,1
    80000010:	02b50533          	mul	a0,a0,a1
    80000014:	912a                	add	sp,sp,a0
    80000016:	04e000ef          	jal	80000064 <start>

000000008000001a <spin>:
    8000001a:	a001                	j	8000001a <spin>

000000008000001c <timerinit>:
}

// ask each hart to generate timer interrupts.
void
timerinit()
{
    8000001c:	1141                	addi	sp,sp,-16
    8000001e:	e406                	sd	ra,8(sp)
    80000020:	e022                	sd	s0,0(sp)
    80000022:	0800                	addi	s0,sp,16
#define MIE_STIE (1L << 5)  // supervisor timer
static inline uint64
r_mie()
{
  uint64 x;
  asm volatile("csrr %0, mie" : "=r" (x) );
    80000024:	304027f3          	csrr	a5,mie
  // enable supervisor-mode timer interrupts.
  w_mie(r_mie() | MIE_STIE);
    80000028:	0207e793          	ori	a5,a5,32
}

static inline void 
w_mie(uint64 x)
{
  asm volatile("csrw mie, %0" : : "r" (x));
    8000002c:	30479073          	csrw	mie,a5
static inline uint64
r_menvcfg()
{
  uint64 x;
  // asm volatile("csrr %0, menvcfg" : "=r" (x) );
  asm volatile("csrr %0, 0x30a" : "=r" (x) );
    80000030:	30a027f3          	csrr	a5,0x30a
  
  // enable the sstc extension (i.e. stimecmp).
  w_menvcfg(r_menvcfg() | (1L << 63)); 
    80000034:	577d                	li	a4,-1
    80000036:	177e                	slli	a4,a4,0x3f
    80000038:	8fd9                	or	a5,a5,a4

static inline void 
w_menvcfg(uint64 x)
{
  // asm volatile("csrw menvcfg, %0" : : "r" (x));
  asm volatile("csrw 0x30a, %0" : : "r" (x));
    8000003a:	30a79073          	csrw	0x30a,a5

static inline uint64
r_mcounteren()
{
  uint64 x;
  asm volatile("csrr %0, mcounteren" : "=r" (x) );
    8000003e:	306027f3          	csrr	a5,mcounteren
  
  // allow supervisor to use stimecmp and time.
  w_mcounteren(r_mcounteren() | 2);
    80000042:	0027e793          	ori	a5,a5,2
  asm volatile("csrw mcounteren, %0" : : "r" (x));
    80000046:	30679073          	csrw	mcounteren,a5
// machine-mode cycle counter
static inline uint64
r_time()
{
  uint64 x;
  asm volatile("csrr %0, time" : "=r" (x) );
    8000004a:	c01027f3          	rdtime	a5
  
  // ask for the very first timer interrupt.
  w_stimecmp(r_time() + 1000000);
    8000004e:	000f4737          	lui	a4,0xf4
    80000052:	24070713          	addi	a4,a4,576 # f4240 <_entry-0x7ff0bdc0>
    80000056:	97ba                	add	a5,a5,a4
  asm volatile("csrw 0x14d, %0" : : "r" (x));
    80000058:	14d79073          	csrw	stimecmp,a5
}
    8000005c:	60a2                	ld	ra,8(sp)
    8000005e:	6402                	ld	s0,0(sp)
    80000060:	0141                	addi	sp,sp,16
    80000062:	8082                	ret

0000000080000064 <start>:
{
    80000064:	1141                	addi	sp,sp,-16
    80000066:	e406                	sd	ra,8(sp)
    80000068:	e022                	sd	s0,0(sp)
    8000006a:	0800                	addi	s0,sp,16
  asm volatile("csrr %0, mstatus" : "=r" (x) );
    8000006c:	300027f3          	csrr	a5,mstatus
  x &= ~MSTATUS_MPP_MASK;
    80000070:	7779                	lui	a4,0xffffe
    80000072:	7ff70713          	addi	a4,a4,2047 # ffffffffffffe7ff <end+0xffffffff7ffd3e1f>
    80000076:	8ff9                	and	a5,a5,a4
  x |= MSTATUS_MPP_S;
    80000078:	6705                	lui	a4,0x1
    8000007a:	80070713          	addi	a4,a4,-2048 # 800 <_entry-0x7ffff800>
    8000007e:	8fd9                	or	a5,a5,a4
  asm volatile("csrw mstatus, %0" : : "r" (x));
    80000080:	30079073          	csrw	mstatus,a5
  asm volatile("csrw mepc, %0" : : "r" (x));
    80000084:	00001797          	auipc	a5,0x1
    80000088:	e0078793          	addi	a5,a5,-512 # 80000e84 <main>
    8000008c:	34179073          	csrw	mepc,a5
  asm volatile("csrw satp, %0" : : "r" (x));
    80000090:	4781                	li	a5,0
    80000092:	18079073          	csrw	satp,a5
  asm volatile("csrw medeleg, %0" : : "r" (x));
    80000096:	67c1                	lui	a5,0x10
    80000098:	17fd                	addi	a5,a5,-1 # ffff <_entry-0x7fff0001>
    8000009a:	30279073          	csrw	medeleg,a5
  asm volatile("csrw mideleg, %0" : : "r" (x));
    8000009e:	30379073          	csrw	mideleg,a5
  asm volatile("csrr %0, sie" : "=r" (x) );
    800000a2:	104027f3          	csrr	a5,sie
  w_sie(r_sie() | SIE_SEIE | SIE_STIE | SIE_SSIE);
    800000a6:	2227e793          	ori	a5,a5,546
  asm volatile("csrw sie, %0" : : "r" (x));
    800000aa:	10479073          	csrw	sie,a5
  asm volatile("csrw pmpaddr0, %0" : : "r" (x));
    800000ae:	57fd                	li	a5,-1
    800000b0:	83a9                	srli	a5,a5,0xa
    800000b2:	3b079073          	csrw	pmpaddr0,a5
  asm volatile("csrw pmpcfg0, %0" : : "r" (x));
    800000b6:	47bd                	li	a5,15
    800000b8:	3a079073          	csrw	pmpcfg0,a5
  timerinit();
    800000bc:	f61ff0ef          	jal	8000001c <timerinit>
  asm volatile("csrr %0, mhartid" : "=r" (x) );
    800000c0:	f14027f3          	csrr	a5,mhartid
  w_tp(id);
    800000c4:	2781                	sext.w	a5,a5
}

static inline void 
w_tp(uint64 x)
{
  asm volatile("mv tp, %0" : : "r" (x));
    800000c6:	823e                	mv	tp,a5
  asm volatile("mret");
    800000c8:	30200073          	mret
}
    800000cc:	60a2                	ld	ra,8(sp)
    800000ce:	6402                	ld	s0,0(sp)
    800000d0:	0141                	addi	sp,sp,16
    800000d2:	8082                	ret

00000000800000d4 <consolewrite>:
//
// user write()s to the console go here.
//
int
consolewrite(int user_src, uint64 src, int n)
{
    800000d4:	711d                	addi	sp,sp,-96
    800000d6:	ec86                	sd	ra,88(sp)
    800000d8:	e8a2                	sd	s0,80(sp)
    800000da:	e0ca                	sd	s2,64(sp)
    800000dc:	1080                	addi	s0,sp,96
  int i;

  for(i = 0; i < n; i++){
    800000de:	04c05863          	blez	a2,8000012e <consolewrite+0x5a>
    800000e2:	e4a6                	sd	s1,72(sp)
    800000e4:	fc4e                	sd	s3,56(sp)
    800000e6:	f852                	sd	s4,48(sp)
    800000e8:	f456                	sd	s5,40(sp)
    800000ea:	f05a                	sd	s6,32(sp)
    800000ec:	ec5e                	sd	s7,24(sp)
    800000ee:	8a2a                	mv	s4,a0
    800000f0:	84ae                	mv	s1,a1
    800000f2:	89b2                	mv	s3,a2
    800000f4:	4901                	li	s2,0
    char c;
    if(either_copyin(&c, user_src, src+i, 1) == -1)
    800000f6:	faf40b93          	addi	s7,s0,-81
    800000fa:	4b05                	li	s6,1
    800000fc:	5afd                	li	s5,-1
    800000fe:	86da                	mv	a3,s6
    80000100:	8626                	mv	a2,s1
    80000102:	85d2                	mv	a1,s4
    80000104:	855e                	mv	a0,s7
    80000106:	4c8020ef          	jal	800025ce <either_copyin>
    8000010a:	03550463          	beq	a0,s5,80000132 <consolewrite+0x5e>
      break;
    uartputc(c);
    8000010e:	faf44503          	lbu	a0,-81(s0)
    80000112:	02d000ef          	jal	8000093e <uartputc>
  for(i = 0; i < n; i++){
    80000116:	2905                	addiw	s2,s2,1
    80000118:	0485                	addi	s1,s1,1
    8000011a:	ff2992e3          	bne	s3,s2,800000fe <consolewrite+0x2a>
    8000011e:	894e                	mv	s2,s3
    80000120:	64a6                	ld	s1,72(sp)
    80000122:	79e2                	ld	s3,56(sp)
    80000124:	7a42                	ld	s4,48(sp)
    80000126:	7aa2                	ld	s5,40(sp)
    80000128:	7b02                	ld	s6,32(sp)
    8000012a:	6be2                	ld	s7,24(sp)
    8000012c:	a809                	j	8000013e <consolewrite+0x6a>
    8000012e:	4901                	li	s2,0
    80000130:	a039                	j	8000013e <consolewrite+0x6a>
    80000132:	64a6                	ld	s1,72(sp)
    80000134:	79e2                	ld	s3,56(sp)
    80000136:	7a42                	ld	s4,48(sp)
    80000138:	7aa2                	ld	s5,40(sp)
    8000013a:	7b02                	ld	s6,32(sp)
    8000013c:	6be2                	ld	s7,24(sp)
  }

  return i;
}
    8000013e:	854a                	mv	a0,s2
    80000140:	60e6                	ld	ra,88(sp)
    80000142:	6446                	ld	s0,80(sp)
    80000144:	6906                	ld	s2,64(sp)
    80000146:	6125                	addi	sp,sp,96
    80000148:	8082                	ret

000000008000014a <consoleread>:
// user_dist indicates whether dst is a user
// or kernel address.
//
int
consoleread(int user_dst, uint64 dst, int n)
{
    8000014a:	711d                	addi	sp,sp,-96
    8000014c:	ec86                	sd	ra,88(sp)
    8000014e:	e8a2                	sd	s0,80(sp)
    80000150:	e4a6                	sd	s1,72(sp)
    80000152:	e0ca                	sd	s2,64(sp)
    80000154:	fc4e                	sd	s3,56(sp)
    80000156:	f852                	sd	s4,48(sp)
    80000158:	f456                	sd	s5,40(sp)
    8000015a:	f05a                	sd	s6,32(sp)
    8000015c:	1080                	addi	s0,sp,96
    8000015e:	8aaa                	mv	s5,a0
    80000160:	8a2e                	mv	s4,a1
    80000162:	89b2                	mv	s3,a2
  uint target;
  int c;
  char cbuf;

  target = n;
    80000164:	8b32                	mv	s6,a2
  acquire(&cons.lock);
    80000166:	00010517          	auipc	a0,0x10
    8000016a:	94a50513          	addi	a0,a0,-1718 # 8000fab0 <cons>
    8000016e:	291000ef          	jal	80000bfe <acquire>
  while(n > 0){
    // wait until interrupt handler has put some
    // input into cons.buffer.
    while(cons.r == cons.w){
    80000172:	00010497          	auipc	s1,0x10
    80000176:	93e48493          	addi	s1,s1,-1730 # 8000fab0 <cons>
      if(killed(myproc())){
        release(&cons.lock);
        return -1;
      }
      sleep(&cons.r, &cons.lock);
    8000017a:	00010917          	auipc	s2,0x10
    8000017e:	9ce90913          	addi	s2,s2,-1586 # 8000fb48 <cons+0x98>
  while(n > 0){
    80000182:	0b305b63          	blez	s3,80000238 <consoleread+0xee>
    while(cons.r == cons.w){
    80000186:	0984a783          	lw	a5,152(s1)
    8000018a:	09c4a703          	lw	a4,156(s1)
    8000018e:	0af71063          	bne	a4,a5,8000022e <consoleread+0xe4>
      if(killed(myproc())){
    80000192:	74a010ef          	jal	800018dc <myproc>
    80000196:	2d0020ef          	jal	80002466 <killed>
    8000019a:	e12d                	bnez	a0,800001fc <consoleread+0xb2>
      sleep(&cons.r, &cons.lock);
    8000019c:	85a6                	mv	a1,s1
    8000019e:	854a                	mv	a0,s2
    800001a0:	08e020ef          	jal	8000222e <sleep>
    while(cons.r == cons.w){
    800001a4:	0984a783          	lw	a5,152(s1)
    800001a8:	09c4a703          	lw	a4,156(s1)
    800001ac:	fef703e3          	beq	a4,a5,80000192 <consoleread+0x48>
    800001b0:	ec5e                	sd	s7,24(sp)
    }

    c = cons.buf[cons.r++ % INPUT_BUF_SIZE];
    800001b2:	00010717          	auipc	a4,0x10
    800001b6:	8fe70713          	addi	a4,a4,-1794 # 8000fab0 <cons>
    800001ba:	0017869b          	addiw	a3,a5,1
    800001be:	08d72c23          	sw	a3,152(a4)
    800001c2:	07f7f693          	andi	a3,a5,127
    800001c6:	9736                	add	a4,a4,a3
    800001c8:	01874703          	lbu	a4,24(a4)
    800001cc:	00070b9b          	sext.w	s7,a4

    if(c == C('D')){  // end-of-file
    800001d0:	4691                	li	a3,4
    800001d2:	04db8663          	beq	s7,a3,8000021e <consoleread+0xd4>
      }
      break;
    }

    // copy the input byte to the user-space buffer.
    cbuf = c;
    800001d6:	fae407a3          	sb	a4,-81(s0)
    if(either_copyout(user_dst, dst, &cbuf, 1) == -1)
    800001da:	4685                	li	a3,1
    800001dc:	faf40613          	addi	a2,s0,-81
    800001e0:	85d2                	mv	a1,s4
    800001e2:	8556                	mv	a0,s5
    800001e4:	3a0020ef          	jal	80002584 <either_copyout>
    800001e8:	57fd                	li	a5,-1
    800001ea:	04f50663          	beq	a0,a5,80000236 <consoleread+0xec>
      break;

    dst++;
    800001ee:	0a05                	addi	s4,s4,1
    --n;
    800001f0:	39fd                	addiw	s3,s3,-1

    if(c == '\n'){
    800001f2:	47a9                	li	a5,10
    800001f4:	04fb8b63          	beq	s7,a5,8000024a <consoleread+0x100>
    800001f8:	6be2                	ld	s7,24(sp)
    800001fa:	b761                	j	80000182 <consoleread+0x38>
        release(&cons.lock);
    800001fc:	00010517          	auipc	a0,0x10
    80000200:	8b450513          	addi	a0,a0,-1868 # 8000fab0 <cons>
    80000204:	28f000ef          	jal	80000c92 <release>
        return -1;
    80000208:	557d                	li	a0,-1
    }
  }
  release(&cons.lock);

  return target - n;
}
    8000020a:	60e6                	ld	ra,88(sp)
    8000020c:	6446                	ld	s0,80(sp)
    8000020e:	64a6                	ld	s1,72(sp)
    80000210:	6906                	ld	s2,64(sp)
    80000212:	79e2                	ld	s3,56(sp)
    80000214:	7a42                	ld	s4,48(sp)
    80000216:	7aa2                	ld	s5,40(sp)
    80000218:	7b02                	ld	s6,32(sp)
    8000021a:	6125                	addi	sp,sp,96
    8000021c:	8082                	ret
      if(n < target){
    8000021e:	0169fa63          	bgeu	s3,s6,80000232 <consoleread+0xe8>
        cons.r--;
    80000222:	00010717          	auipc	a4,0x10
    80000226:	92f72323          	sw	a5,-1754(a4) # 8000fb48 <cons+0x98>
    8000022a:	6be2                	ld	s7,24(sp)
    8000022c:	a031                	j	80000238 <consoleread+0xee>
    8000022e:	ec5e                	sd	s7,24(sp)
    80000230:	b749                	j	800001b2 <consoleread+0x68>
    80000232:	6be2                	ld	s7,24(sp)
    80000234:	a011                	j	80000238 <consoleread+0xee>
    80000236:	6be2                	ld	s7,24(sp)
  release(&cons.lock);
    80000238:	00010517          	auipc	a0,0x10
    8000023c:	87850513          	addi	a0,a0,-1928 # 8000fab0 <cons>
    80000240:	253000ef          	jal	80000c92 <release>
  return target - n;
    80000244:	413b053b          	subw	a0,s6,s3
    80000248:	b7c9                	j	8000020a <consoleread+0xc0>
    8000024a:	6be2                	ld	s7,24(sp)
    8000024c:	b7f5                	j	80000238 <consoleread+0xee>

000000008000024e <consputc>:
{
    8000024e:	1141                	addi	sp,sp,-16
    80000250:	e406                	sd	ra,8(sp)
    80000252:	e022                	sd	s0,0(sp)
    80000254:	0800                	addi	s0,sp,16
  if(c == BACKSPACE){
    80000256:	10000793          	li	a5,256
    8000025a:	00f50863          	beq	a0,a5,8000026a <consputc+0x1c>
    uartputc_sync(c);
    8000025e:	5fe000ef          	jal	8000085c <uartputc_sync>
}
    80000262:	60a2                	ld	ra,8(sp)
    80000264:	6402                	ld	s0,0(sp)
    80000266:	0141                	addi	sp,sp,16
    80000268:	8082                	ret
    uartputc_sync('\b'); uartputc_sync(' '); uartputc_sync('\b');
    8000026a:	4521                	li	a0,8
    8000026c:	5f0000ef          	jal	8000085c <uartputc_sync>
    80000270:	02000513          	li	a0,32
    80000274:	5e8000ef          	jal	8000085c <uartputc_sync>
    80000278:	4521                	li	a0,8
    8000027a:	5e2000ef          	jal	8000085c <uartputc_sync>
    8000027e:	b7d5                	j	80000262 <consputc+0x14>

0000000080000280 <consoleintr>:
// do erase/kill processing, append to cons.buf,
// wake up consoleread() if a whole line has arrived.
//
void
consoleintr(int c)
{
    80000280:	7179                	addi	sp,sp,-48
    80000282:	f406                	sd	ra,40(sp)
    80000284:	f022                	sd	s0,32(sp)
    80000286:	ec26                	sd	s1,24(sp)
    80000288:	1800                	addi	s0,sp,48
    8000028a:	84aa                	mv	s1,a0
  acquire(&cons.lock);
    8000028c:	00010517          	auipc	a0,0x10
    80000290:	82450513          	addi	a0,a0,-2012 # 8000fab0 <cons>
    80000294:	16b000ef          	jal	80000bfe <acquire>

  switch(c){
    80000298:	47d5                	li	a5,21
    8000029a:	08f48e63          	beq	s1,a5,80000336 <consoleintr+0xb6>
    8000029e:	0297c563          	blt	a5,s1,800002c8 <consoleintr+0x48>
    800002a2:	47a1                	li	a5,8
    800002a4:	0ef48863          	beq	s1,a5,80000394 <consoleintr+0x114>
    800002a8:	47c1                	li	a5,16
    800002aa:	10f49963          	bne	s1,a5,800003bc <consoleintr+0x13c>
  case C('P'):  // Print process list.
    procdump();
    800002ae:	36a020ef          	jal	80002618 <procdump>
      }
    }
    break;
  }
  
  release(&cons.lock);
    800002b2:	0000f517          	auipc	a0,0xf
    800002b6:	7fe50513          	addi	a0,a0,2046 # 8000fab0 <cons>
    800002ba:	1d9000ef          	jal	80000c92 <release>
}
    800002be:	70a2                	ld	ra,40(sp)
    800002c0:	7402                	ld	s0,32(sp)
    800002c2:	64e2                	ld	s1,24(sp)
    800002c4:	6145                	addi	sp,sp,48
    800002c6:	8082                	ret
  switch(c){
    800002c8:	07f00793          	li	a5,127
    800002cc:	0cf48463          	beq	s1,a5,80000394 <consoleintr+0x114>
    if(c != 0 && cons.e-cons.r < INPUT_BUF_SIZE){
    800002d0:	0000f717          	auipc	a4,0xf
    800002d4:	7e070713          	addi	a4,a4,2016 # 8000fab0 <cons>
    800002d8:	0a072783          	lw	a5,160(a4)
    800002dc:	09872703          	lw	a4,152(a4)
    800002e0:	9f99                	subw	a5,a5,a4
    800002e2:	07f00713          	li	a4,127
    800002e6:	fcf766e3          	bltu	a4,a5,800002b2 <consoleintr+0x32>
      c = (c == '\r') ? '\n' : c;
    800002ea:	47b5                	li	a5,13
    800002ec:	0cf48b63          	beq	s1,a5,800003c2 <consoleintr+0x142>
      consputc(c);
    800002f0:	8526                	mv	a0,s1
    800002f2:	f5dff0ef          	jal	8000024e <consputc>
      cons.buf[cons.e++ % INPUT_BUF_SIZE] = c;
    800002f6:	0000f797          	auipc	a5,0xf
    800002fa:	7ba78793          	addi	a5,a5,1978 # 8000fab0 <cons>
    800002fe:	0a07a683          	lw	a3,160(a5)
    80000302:	0016871b          	addiw	a4,a3,1
    80000306:	863a                	mv	a2,a4
    80000308:	0ae7a023          	sw	a4,160(a5)
    8000030c:	07f6f693          	andi	a3,a3,127
    80000310:	97b6                	add	a5,a5,a3
    80000312:	00978c23          	sb	s1,24(a5)
      if(c == '\n' || c == C('D') || cons.e-cons.r == INPUT_BUF_SIZE){
    80000316:	47a9                	li	a5,10
    80000318:	0cf48963          	beq	s1,a5,800003ea <consoleintr+0x16a>
    8000031c:	4791                	li	a5,4
    8000031e:	0cf48663          	beq	s1,a5,800003ea <consoleintr+0x16a>
    80000322:	00010797          	auipc	a5,0x10
    80000326:	8267a783          	lw	a5,-2010(a5) # 8000fb48 <cons+0x98>
    8000032a:	9f1d                	subw	a4,a4,a5
    8000032c:	08000793          	li	a5,128
    80000330:	f8f711e3          	bne	a4,a5,800002b2 <consoleintr+0x32>
    80000334:	a85d                	j	800003ea <consoleintr+0x16a>
    80000336:	e84a                	sd	s2,16(sp)
    80000338:	e44e                	sd	s3,8(sp)
    while(cons.e != cons.w &&
    8000033a:	0000f717          	auipc	a4,0xf
    8000033e:	77670713          	addi	a4,a4,1910 # 8000fab0 <cons>
    80000342:	0a072783          	lw	a5,160(a4)
    80000346:	09c72703          	lw	a4,156(a4)
          cons.buf[(cons.e-1) % INPUT_BUF_SIZE] != '\n'){
    8000034a:	0000f497          	auipc	s1,0xf
    8000034e:	76648493          	addi	s1,s1,1894 # 8000fab0 <cons>
    while(cons.e != cons.w &&
    80000352:	4929                	li	s2,10
      consputc(BACKSPACE);
    80000354:	10000993          	li	s3,256
    while(cons.e != cons.w &&
    80000358:	02f70863          	beq	a4,a5,80000388 <consoleintr+0x108>
          cons.buf[(cons.e-1) % INPUT_BUF_SIZE] != '\n'){
    8000035c:	37fd                	addiw	a5,a5,-1
    8000035e:	07f7f713          	andi	a4,a5,127
    80000362:	9726                	add	a4,a4,s1
    while(cons.e != cons.w &&
    80000364:	01874703          	lbu	a4,24(a4)
    80000368:	03270363          	beq	a4,s2,8000038e <consoleintr+0x10e>
      cons.e--;
    8000036c:	0af4a023          	sw	a5,160(s1)
      consputc(BACKSPACE);
    80000370:	854e                	mv	a0,s3
    80000372:	eddff0ef          	jal	8000024e <consputc>
    while(cons.e != cons.w &&
    80000376:	0a04a783          	lw	a5,160(s1)
    8000037a:	09c4a703          	lw	a4,156(s1)
    8000037e:	fcf71fe3          	bne	a4,a5,8000035c <consoleintr+0xdc>
    80000382:	6942                	ld	s2,16(sp)
    80000384:	69a2                	ld	s3,8(sp)
    80000386:	b735                	j	800002b2 <consoleintr+0x32>
    80000388:	6942                	ld	s2,16(sp)
    8000038a:	69a2                	ld	s3,8(sp)
    8000038c:	b71d                	j	800002b2 <consoleintr+0x32>
    8000038e:	6942                	ld	s2,16(sp)
    80000390:	69a2                	ld	s3,8(sp)
    80000392:	b705                	j	800002b2 <consoleintr+0x32>
    if(cons.e != cons.w){
    80000394:	0000f717          	auipc	a4,0xf
    80000398:	71c70713          	addi	a4,a4,1820 # 8000fab0 <cons>
    8000039c:	0a072783          	lw	a5,160(a4)
    800003a0:	09c72703          	lw	a4,156(a4)
    800003a4:	f0f707e3          	beq	a4,a5,800002b2 <consoleintr+0x32>
      cons.e--;
    800003a8:	37fd                	addiw	a5,a5,-1
    800003aa:	0000f717          	auipc	a4,0xf
    800003ae:	7af72323          	sw	a5,1958(a4) # 8000fb50 <cons+0xa0>
      consputc(BACKSPACE);
    800003b2:	10000513          	li	a0,256
    800003b6:	e99ff0ef          	jal	8000024e <consputc>
    800003ba:	bde5                	j	800002b2 <consoleintr+0x32>
    if(c != 0 && cons.e-cons.r < INPUT_BUF_SIZE){
    800003bc:	ee048be3          	beqz	s1,800002b2 <consoleintr+0x32>
    800003c0:	bf01                	j	800002d0 <consoleintr+0x50>
      consputc(c);
    800003c2:	4529                	li	a0,10
    800003c4:	e8bff0ef          	jal	8000024e <consputc>
      cons.buf[cons.e++ % INPUT_BUF_SIZE] = c;
    800003c8:	0000f797          	auipc	a5,0xf
    800003cc:	6e878793          	addi	a5,a5,1768 # 8000fab0 <cons>
    800003d0:	0a07a703          	lw	a4,160(a5)
    800003d4:	0017069b          	addiw	a3,a4,1
    800003d8:	8636                	mv	a2,a3
    800003da:	0ad7a023          	sw	a3,160(a5)
    800003de:	07f77713          	andi	a4,a4,127
    800003e2:	97ba                	add	a5,a5,a4
    800003e4:	4729                	li	a4,10
    800003e6:	00e78c23          	sb	a4,24(a5)
        cons.w = cons.e;
    800003ea:	0000f797          	auipc	a5,0xf
    800003ee:	76c7a123          	sw	a2,1890(a5) # 8000fb4c <cons+0x9c>
        wakeup(&cons.r);
    800003f2:	0000f517          	auipc	a0,0xf
    800003f6:	75650513          	addi	a0,a0,1878 # 8000fb48 <cons+0x98>
    800003fa:	681010ef          	jal	8000227a <wakeup>
    800003fe:	bd55                	j	800002b2 <consoleintr+0x32>

0000000080000400 <consoleinit>:

void
consoleinit(void)
{
    80000400:	1141                	addi	sp,sp,-16
    80000402:	e406                	sd	ra,8(sp)
    80000404:	e022                	sd	s0,0(sp)
    80000406:	0800                	addi	s0,sp,16
  initlock(&cons.lock, "cons");
    80000408:	00007597          	auipc	a1,0x7
    8000040c:	bf858593          	addi	a1,a1,-1032 # 80007000 <etext>
    80000410:	0000f517          	auipc	a0,0xf
    80000414:	6a050513          	addi	a0,a0,1696 # 8000fab0 <cons>
    80000418:	762000ef          	jal	80000b7a <initlock>

  uartinit();
    8000041c:	3ea000ef          	jal	80000806 <uartinit>

  // connect read and write system calls
  // to consoleread and consolewrite.
  devsw[CONSOLE].read = consoleread;
    80000420:	00029797          	auipc	a5,0x29
    80000424:	42878793          	addi	a5,a5,1064 # 80029848 <devsw>
    80000428:	00000717          	auipc	a4,0x0
    8000042c:	d2270713          	addi	a4,a4,-734 # 8000014a <consoleread>
    80000430:	eb98                	sd	a4,16(a5)
  devsw[CONSOLE].write = consolewrite;
    80000432:	00000717          	auipc	a4,0x0
    80000436:	ca270713          	addi	a4,a4,-862 # 800000d4 <consolewrite>
    8000043a:	ef98                	sd	a4,24(a5)
}
    8000043c:	60a2                	ld	ra,8(sp)
    8000043e:	6402                	ld	s0,0(sp)
    80000440:	0141                	addi	sp,sp,16
    80000442:	8082                	ret

0000000080000444 <printint>:

static char digits[] = "0123456789abcdef";

static void
printint(long long xx, int base, int sign)
{
    80000444:	7179                	addi	sp,sp,-48
    80000446:	f406                	sd	ra,40(sp)
    80000448:	f022                	sd	s0,32(sp)
    8000044a:	ec26                	sd	s1,24(sp)
    8000044c:	e84a                	sd	s2,16(sp)
    8000044e:	1800                	addi	s0,sp,48
  char buf[16];
  int i;
  unsigned long long x;

  if(sign && (sign = (xx < 0)))
    80000450:	c219                	beqz	a2,80000456 <printint+0x12>
    80000452:	06054a63          	bltz	a0,800004c6 <printint+0x82>
    x = -xx;
  else
    x = xx;
    80000456:	4e01                	li	t3,0

  i = 0;
    80000458:	fd040313          	addi	t1,s0,-48
    x = xx;
    8000045c:	869a                	mv	a3,t1
  i = 0;
    8000045e:	4781                	li	a5,0
  do {
    buf[i++] = digits[x % base];
    80000460:	00007817          	auipc	a6,0x7
    80000464:	3d080813          	addi	a6,a6,976 # 80007830 <digits>
    80000468:	88be                	mv	a7,a5
    8000046a:	0017861b          	addiw	a2,a5,1
    8000046e:	87b2                	mv	a5,a2
    80000470:	02b57733          	remu	a4,a0,a1
    80000474:	9742                	add	a4,a4,a6
    80000476:	00074703          	lbu	a4,0(a4)
    8000047a:	00e68023          	sb	a4,0(a3)
  } while((x /= base) != 0);
    8000047e:	872a                	mv	a4,a0
    80000480:	02b55533          	divu	a0,a0,a1
    80000484:	0685                	addi	a3,a3,1
    80000486:	feb771e3          	bgeu	a4,a1,80000468 <printint+0x24>

  if(sign)
    8000048a:	000e0c63          	beqz	t3,800004a2 <printint+0x5e>
    buf[i++] = '-';
    8000048e:	fe060793          	addi	a5,a2,-32
    80000492:	00878633          	add	a2,a5,s0
    80000496:	02d00793          	li	a5,45
    8000049a:	fef60823          	sb	a5,-16(a2)
    8000049e:	0028879b          	addiw	a5,a7,2

  while(--i >= 0)
    800004a2:	fff7891b          	addiw	s2,a5,-1
    800004a6:	006784b3          	add	s1,a5,t1
    consputc(buf[i]);
    800004aa:	fff4c503          	lbu	a0,-1(s1)
    800004ae:	da1ff0ef          	jal	8000024e <consputc>
  while(--i >= 0)
    800004b2:	397d                	addiw	s2,s2,-1
    800004b4:	14fd                	addi	s1,s1,-1
    800004b6:	fe095ae3          	bgez	s2,800004aa <printint+0x66>
}
    800004ba:	70a2                	ld	ra,40(sp)
    800004bc:	7402                	ld	s0,32(sp)
    800004be:	64e2                	ld	s1,24(sp)
    800004c0:	6942                	ld	s2,16(sp)
    800004c2:	6145                	addi	sp,sp,48
    800004c4:	8082                	ret
    x = -xx;
    800004c6:	40a00533          	neg	a0,a0
  if(sign && (sign = (xx < 0)))
    800004ca:	4e05                	li	t3,1
    x = -xx;
    800004cc:	b771                	j	80000458 <printint+0x14>

00000000800004ce <printf>:
}

// Print to the console.
int
printf(char *fmt, ...)
{
    800004ce:	7155                	addi	sp,sp,-208
    800004d0:	e506                	sd	ra,136(sp)
    800004d2:	e122                	sd	s0,128(sp)
    800004d4:	f0d2                	sd	s4,96(sp)
    800004d6:	0900                	addi	s0,sp,144
    800004d8:	8a2a                	mv	s4,a0
    800004da:	e40c                	sd	a1,8(s0)
    800004dc:	e810                	sd	a2,16(s0)
    800004de:	ec14                	sd	a3,24(s0)
    800004e0:	f018                	sd	a4,32(s0)
    800004e2:	f41c                	sd	a5,40(s0)
    800004e4:	03043823          	sd	a6,48(s0)
    800004e8:	03143c23          	sd	a7,56(s0)
  va_list ap;
  int i, cx, c0, c1, c2, locking;
  char *s;

  locking = pr.locking;
    800004ec:	0000f797          	auipc	a5,0xf
    800004f0:	6847a783          	lw	a5,1668(a5) # 8000fb70 <pr+0x18>
    800004f4:	f6f43c23          	sd	a5,-136(s0)
  if(locking)
    800004f8:	e3a1                	bnez	a5,80000538 <printf+0x6a>
    acquire(&pr.lock);

  va_start(ap, fmt);
    800004fa:	00840793          	addi	a5,s0,8
    800004fe:	f8f43423          	sd	a5,-120(s0)
  for(i = 0; (cx = fmt[i] & 0xff) != 0; i++){
    80000502:	00054503          	lbu	a0,0(a0)
    80000506:	26050663          	beqz	a0,80000772 <printf+0x2a4>
    8000050a:	fca6                	sd	s1,120(sp)
    8000050c:	f8ca                	sd	s2,112(sp)
    8000050e:	f4ce                	sd	s3,104(sp)
    80000510:	ecd6                	sd	s5,88(sp)
    80000512:	e8da                	sd	s6,80(sp)
    80000514:	e0e2                	sd	s8,64(sp)
    80000516:	fc66                	sd	s9,56(sp)
    80000518:	f86a                	sd	s10,48(sp)
    8000051a:	f46e                	sd	s11,40(sp)
    8000051c:	4981                	li	s3,0
    if(cx != '%'){
    8000051e:	02500a93          	li	s5,37
    i++;
    c0 = fmt[i+0] & 0xff;
    c1 = c2 = 0;
    if(c0) c1 = fmt[i+1] & 0xff;
    if(c1) c2 = fmt[i+2] & 0xff;
    if(c0 == 'd'){
    80000522:	06400b13          	li	s6,100
      printint(va_arg(ap, int), 10, 1);
    } else if(c0 == 'l' && c1 == 'd'){
    80000526:	06c00c13          	li	s8,108
      printint(va_arg(ap, uint64), 10, 1);
      i += 1;
    } else if(c0 == 'l' && c1 == 'l' && c2 == 'd'){
      printint(va_arg(ap, uint64), 10, 1);
      i += 2;
    } else if(c0 == 'u'){
    8000052a:	07500c93          	li	s9,117
      printint(va_arg(ap, uint64), 10, 0);
      i += 1;
    } else if(c0 == 'l' && c1 == 'l' && c2 == 'u'){
      printint(va_arg(ap, uint64), 10, 0);
      i += 2;
    } else if(c0 == 'x'){
    8000052e:	07800d13          	li	s10,120
      printint(va_arg(ap, uint64), 16, 0);
      i += 1;
    } else if(c0 == 'l' && c1 == 'l' && c2 == 'x'){
      printint(va_arg(ap, uint64), 16, 0);
      i += 2;
    } else if(c0 == 'p'){
    80000532:	07000d93          	li	s11,112
    80000536:	a80d                	j	80000568 <printf+0x9a>
    acquire(&pr.lock);
    80000538:	0000f517          	auipc	a0,0xf
    8000053c:	62050513          	addi	a0,a0,1568 # 8000fb58 <pr>
    80000540:	6be000ef          	jal	80000bfe <acquire>
  va_start(ap, fmt);
    80000544:	00840793          	addi	a5,s0,8
    80000548:	f8f43423          	sd	a5,-120(s0)
  for(i = 0; (cx = fmt[i] & 0xff) != 0; i++){
    8000054c:	000a4503          	lbu	a0,0(s4)
    80000550:	fd4d                	bnez	a0,8000050a <printf+0x3c>
    80000552:	ac3d                	j	80000790 <printf+0x2c2>
      consputc(cx);
    80000554:	cfbff0ef          	jal	8000024e <consputc>
      continue;
    80000558:	84ce                	mv	s1,s3
  for(i = 0; (cx = fmt[i] & 0xff) != 0; i++){
    8000055a:	2485                	addiw	s1,s1,1
    8000055c:	89a6                	mv	s3,s1
    8000055e:	94d2                	add	s1,s1,s4
    80000560:	0004c503          	lbu	a0,0(s1)
    80000564:	1e050b63          	beqz	a0,8000075a <printf+0x28c>
    if(cx != '%'){
    80000568:	ff5516e3          	bne	a0,s5,80000554 <printf+0x86>
    i++;
    8000056c:	0019879b          	addiw	a5,s3,1
    80000570:	84be                	mv	s1,a5
    c0 = fmt[i+0] & 0xff;
    80000572:	00fa0733          	add	a4,s4,a5
    80000576:	00074903          	lbu	s2,0(a4)
    if(c0) c1 = fmt[i+1] & 0xff;
    8000057a:	1e090063          	beqz	s2,8000075a <printf+0x28c>
    8000057e:	00174703          	lbu	a4,1(a4)
    c1 = c2 = 0;
    80000582:	86ba                	mv	a3,a4
    if(c1) c2 = fmt[i+2] & 0xff;
    80000584:	c701                	beqz	a4,8000058c <printf+0xbe>
    80000586:	97d2                	add	a5,a5,s4
    80000588:	0027c683          	lbu	a3,2(a5)
    if(c0 == 'd'){
    8000058c:	03690763          	beq	s2,s6,800005ba <printf+0xec>
    } else if(c0 == 'l' && c1 == 'd'){
    80000590:	05890163          	beq	s2,s8,800005d2 <printf+0x104>
    } else if(c0 == 'u'){
    80000594:	0d990b63          	beq	s2,s9,8000066a <printf+0x19c>
    } else if(c0 == 'x'){
    80000598:	13a90163          	beq	s2,s10,800006ba <printf+0x1ec>
    } else if(c0 == 'p'){
    8000059c:	13b90b63          	beq	s2,s11,800006d2 <printf+0x204>
      printptr(va_arg(ap, uint64));
    } else if(c0 == 's'){
    800005a0:	07300793          	li	a5,115
    800005a4:	16f90a63          	beq	s2,a5,80000718 <printf+0x24a>
      if((s = va_arg(ap, char*)) == 0)
        s = "(null)";
      for(; *s; s++)
        consputc(*s);
    } else if(c0 == '%'){
    800005a8:	1b590463          	beq	s2,s5,80000750 <printf+0x282>
      consputc('%');
    } else if(c0 == 0){
      break;
    } else {
      // Print unknown % sequence to draw attention.
      consputc('%');
    800005ac:	8556                	mv	a0,s5
    800005ae:	ca1ff0ef          	jal	8000024e <consputc>
      consputc(c0);
    800005b2:	854a                	mv	a0,s2
    800005b4:	c9bff0ef          	jal	8000024e <consputc>
    800005b8:	b74d                	j	8000055a <printf+0x8c>
      printint(va_arg(ap, int), 10, 1);
    800005ba:	f8843783          	ld	a5,-120(s0)
    800005be:	00878713          	addi	a4,a5,8
    800005c2:	f8e43423          	sd	a4,-120(s0)
    800005c6:	4605                	li	a2,1
    800005c8:	45a9                	li	a1,10
    800005ca:	4388                	lw	a0,0(a5)
    800005cc:	e79ff0ef          	jal	80000444 <printint>
    800005d0:	b769                	j	8000055a <printf+0x8c>
    } else if(c0 == 'l' && c1 == 'd'){
    800005d2:	03670663          	beq	a4,s6,800005fe <printf+0x130>
    } else if(c0 == 'l' && c1 == 'l' && c2 == 'd'){
    800005d6:	05870263          	beq	a4,s8,8000061a <printf+0x14c>
    } else if(c0 == 'l' && c1 == 'u'){
    800005da:	0b970463          	beq	a4,s9,80000682 <printf+0x1b4>
    } else if(c0 == 'l' && c1 == 'x'){
    800005de:	fda717e3          	bne	a4,s10,800005ac <printf+0xde>
      printint(va_arg(ap, uint64), 16, 0);
    800005e2:	f8843783          	ld	a5,-120(s0)
    800005e6:	00878713          	addi	a4,a5,8
    800005ea:	f8e43423          	sd	a4,-120(s0)
    800005ee:	4601                	li	a2,0
    800005f0:	45c1                	li	a1,16
    800005f2:	6388                	ld	a0,0(a5)
    800005f4:	e51ff0ef          	jal	80000444 <printint>
      i += 1;
    800005f8:	0029849b          	addiw	s1,s3,2
    800005fc:	bfb9                	j	8000055a <printf+0x8c>
      printint(va_arg(ap, uint64), 10, 1);
    800005fe:	f8843783          	ld	a5,-120(s0)
    80000602:	00878713          	addi	a4,a5,8
    80000606:	f8e43423          	sd	a4,-120(s0)
    8000060a:	4605                	li	a2,1
    8000060c:	45a9                	li	a1,10
    8000060e:	6388                	ld	a0,0(a5)
    80000610:	e35ff0ef          	jal	80000444 <printint>
      i += 1;
    80000614:	0029849b          	addiw	s1,s3,2
    80000618:	b789                	j	8000055a <printf+0x8c>
    } else if(c0 == 'l' && c1 == 'l' && c2 == 'd'){
    8000061a:	06400793          	li	a5,100
    8000061e:	02f68863          	beq	a3,a5,8000064e <printf+0x180>
    } else if(c0 == 'l' && c1 == 'l' && c2 == 'u'){
    80000622:	07500793          	li	a5,117
    80000626:	06f68c63          	beq	a3,a5,8000069e <printf+0x1d0>
    } else if(c0 == 'l' && c1 == 'l' && c2 == 'x'){
    8000062a:	07800793          	li	a5,120
    8000062e:	f6f69fe3          	bne	a3,a5,800005ac <printf+0xde>
      printint(va_arg(ap, uint64), 16, 0);
    80000632:	f8843783          	ld	a5,-120(s0)
    80000636:	00878713          	addi	a4,a5,8
    8000063a:	f8e43423          	sd	a4,-120(s0)
    8000063e:	4601                	li	a2,0
    80000640:	45c1                	li	a1,16
    80000642:	6388                	ld	a0,0(a5)
    80000644:	e01ff0ef          	jal	80000444 <printint>
      i += 2;
    80000648:	0039849b          	addiw	s1,s3,3
    8000064c:	b739                	j	8000055a <printf+0x8c>
      printint(va_arg(ap, uint64), 10, 1);
    8000064e:	f8843783          	ld	a5,-120(s0)
    80000652:	00878713          	addi	a4,a5,8
    80000656:	f8e43423          	sd	a4,-120(s0)
    8000065a:	4605                	li	a2,1
    8000065c:	45a9                	li	a1,10
    8000065e:	6388                	ld	a0,0(a5)
    80000660:	de5ff0ef          	jal	80000444 <printint>
      i += 2;
    80000664:	0039849b          	addiw	s1,s3,3
    80000668:	bdcd                	j	8000055a <printf+0x8c>
      printint(va_arg(ap, int), 10, 0);
    8000066a:	f8843783          	ld	a5,-120(s0)
    8000066e:	00878713          	addi	a4,a5,8
    80000672:	f8e43423          	sd	a4,-120(s0)
    80000676:	4601                	li	a2,0
    80000678:	45a9                	li	a1,10
    8000067a:	4388                	lw	a0,0(a5)
    8000067c:	dc9ff0ef          	jal	80000444 <printint>
    80000680:	bde9                	j	8000055a <printf+0x8c>
      printint(va_arg(ap, uint64), 10, 0);
    80000682:	f8843783          	ld	a5,-120(s0)
    80000686:	00878713          	addi	a4,a5,8
    8000068a:	f8e43423          	sd	a4,-120(s0)
    8000068e:	4601                	li	a2,0
    80000690:	45a9                	li	a1,10
    80000692:	6388                	ld	a0,0(a5)
    80000694:	db1ff0ef          	jal	80000444 <printint>
      i += 1;
    80000698:	0029849b          	addiw	s1,s3,2
    8000069c:	bd7d                	j	8000055a <printf+0x8c>
      printint(va_arg(ap, uint64), 10, 0);
    8000069e:	f8843783          	ld	a5,-120(s0)
    800006a2:	00878713          	addi	a4,a5,8
    800006a6:	f8e43423          	sd	a4,-120(s0)
    800006aa:	4601                	li	a2,0
    800006ac:	45a9                	li	a1,10
    800006ae:	6388                	ld	a0,0(a5)
    800006b0:	d95ff0ef          	jal	80000444 <printint>
      i += 2;
    800006b4:	0039849b          	addiw	s1,s3,3
    800006b8:	b54d                	j	8000055a <printf+0x8c>
      printint(va_arg(ap, int), 16, 0);
    800006ba:	f8843783          	ld	a5,-120(s0)
    800006be:	00878713          	addi	a4,a5,8
    800006c2:	f8e43423          	sd	a4,-120(s0)
    800006c6:	4601                	li	a2,0
    800006c8:	45c1                	li	a1,16
    800006ca:	4388                	lw	a0,0(a5)
    800006cc:	d79ff0ef          	jal	80000444 <printint>
    800006d0:	b569                	j	8000055a <printf+0x8c>
    800006d2:	e4de                	sd	s7,72(sp)
      printptr(va_arg(ap, uint64));
    800006d4:	f8843783          	ld	a5,-120(s0)
    800006d8:	00878713          	addi	a4,a5,8
    800006dc:	f8e43423          	sd	a4,-120(s0)
    800006e0:	0007b983          	ld	s3,0(a5)
  consputc('0');
    800006e4:	03000513          	li	a0,48
    800006e8:	b67ff0ef          	jal	8000024e <consputc>
  consputc('x');
    800006ec:	07800513          	li	a0,120
    800006f0:	b5fff0ef          	jal	8000024e <consputc>
    800006f4:	4941                	li	s2,16
    consputc(digits[x >> (sizeof(uint64) * 8 - 4)]);
    800006f6:	00007b97          	auipc	s7,0x7
    800006fa:	13ab8b93          	addi	s7,s7,314 # 80007830 <digits>
    800006fe:	03c9d793          	srli	a5,s3,0x3c
    80000702:	97de                	add	a5,a5,s7
    80000704:	0007c503          	lbu	a0,0(a5)
    80000708:	b47ff0ef          	jal	8000024e <consputc>
  for (i = 0; i < (sizeof(uint64) * 2); i++, x <<= 4)
    8000070c:	0992                	slli	s3,s3,0x4
    8000070e:	397d                	addiw	s2,s2,-1
    80000710:	fe0917e3          	bnez	s2,800006fe <printf+0x230>
    80000714:	6ba6                	ld	s7,72(sp)
    80000716:	b591                	j	8000055a <printf+0x8c>
      if((s = va_arg(ap, char*)) == 0)
    80000718:	f8843783          	ld	a5,-120(s0)
    8000071c:	00878713          	addi	a4,a5,8
    80000720:	f8e43423          	sd	a4,-120(s0)
    80000724:	0007b903          	ld	s2,0(a5)
    80000728:	00090d63          	beqz	s2,80000742 <printf+0x274>
      for(; *s; s++)
    8000072c:	00094503          	lbu	a0,0(s2)
    80000730:	e20505e3          	beqz	a0,8000055a <printf+0x8c>
        consputc(*s);
    80000734:	b1bff0ef          	jal	8000024e <consputc>
      for(; *s; s++)
    80000738:	0905                	addi	s2,s2,1
    8000073a:	00094503          	lbu	a0,0(s2)
    8000073e:	f97d                	bnez	a0,80000734 <printf+0x266>
    80000740:	bd29                	j	8000055a <printf+0x8c>
        s = "(null)";
    80000742:	00007917          	auipc	s2,0x7
    80000746:	8c690913          	addi	s2,s2,-1850 # 80007008 <etext+0x8>
      for(; *s; s++)
    8000074a:	02800513          	li	a0,40
    8000074e:	b7dd                	j	80000734 <printf+0x266>
      consputc('%');
    80000750:	02500513          	li	a0,37
    80000754:	afbff0ef          	jal	8000024e <consputc>
    80000758:	b509                	j	8000055a <printf+0x8c>
    }
#endif
  }
  va_end(ap);

  if(locking)
    8000075a:	f7843783          	ld	a5,-136(s0)
    8000075e:	e385                	bnez	a5,8000077e <printf+0x2b0>
    80000760:	74e6                	ld	s1,120(sp)
    80000762:	7946                	ld	s2,112(sp)
    80000764:	79a6                	ld	s3,104(sp)
    80000766:	6ae6                	ld	s5,88(sp)
    80000768:	6b46                	ld	s6,80(sp)
    8000076a:	6c06                	ld	s8,64(sp)
    8000076c:	7ce2                	ld	s9,56(sp)
    8000076e:	7d42                	ld	s10,48(sp)
    80000770:	7da2                	ld	s11,40(sp)
    release(&pr.lock);

  return 0;
}
    80000772:	4501                	li	a0,0
    80000774:	60aa                	ld	ra,136(sp)
    80000776:	640a                	ld	s0,128(sp)
    80000778:	7a06                	ld	s4,96(sp)
    8000077a:	6169                	addi	sp,sp,208
    8000077c:	8082                	ret
    8000077e:	74e6                	ld	s1,120(sp)
    80000780:	7946                	ld	s2,112(sp)
    80000782:	79a6                	ld	s3,104(sp)
    80000784:	6ae6                	ld	s5,88(sp)
    80000786:	6b46                	ld	s6,80(sp)
    80000788:	6c06                	ld	s8,64(sp)
    8000078a:	7ce2                	ld	s9,56(sp)
    8000078c:	7d42                	ld	s10,48(sp)
    8000078e:	7da2                	ld	s11,40(sp)
    release(&pr.lock);
    80000790:	0000f517          	auipc	a0,0xf
    80000794:	3c850513          	addi	a0,a0,968 # 8000fb58 <pr>
    80000798:	4fa000ef          	jal	80000c92 <release>
    8000079c:	bfd9                	j	80000772 <printf+0x2a4>

000000008000079e <panic>:

void
panic(char *s)
{
    8000079e:	1101                	addi	sp,sp,-32
    800007a0:	ec06                	sd	ra,24(sp)
    800007a2:	e822                	sd	s0,16(sp)
    800007a4:	e426                	sd	s1,8(sp)
    800007a6:	1000                	addi	s0,sp,32
    800007a8:	84aa                	mv	s1,a0
  pr.locking = 0;
    800007aa:	0000f797          	auipc	a5,0xf
    800007ae:	3c07a323          	sw	zero,966(a5) # 8000fb70 <pr+0x18>
  printf("panic: ");
    800007b2:	00007517          	auipc	a0,0x7
    800007b6:	86650513          	addi	a0,a0,-1946 # 80007018 <etext+0x18>
    800007ba:	d15ff0ef          	jal	800004ce <printf>
  printf("%s\n", s);
    800007be:	85a6                	mv	a1,s1
    800007c0:	00007517          	auipc	a0,0x7
    800007c4:	86050513          	addi	a0,a0,-1952 # 80007020 <etext+0x20>
    800007c8:	d07ff0ef          	jal	800004ce <printf>
  panicked = 1; // freeze uart output from other CPUs
    800007cc:	4785                	li	a5,1
    800007ce:	00007717          	auipc	a4,0x7
    800007d2:	2af72123          	sw	a5,674(a4) # 80007a70 <panicked>
  for(;;)
    800007d6:	a001                	j	800007d6 <panic+0x38>

00000000800007d8 <printfinit>:
    ;
}

void
printfinit(void)
{
    800007d8:	1101                	addi	sp,sp,-32
    800007da:	ec06                	sd	ra,24(sp)
    800007dc:	e822                	sd	s0,16(sp)
    800007de:	e426                	sd	s1,8(sp)
    800007e0:	1000                	addi	s0,sp,32
  initlock(&pr.lock, "pr");
    800007e2:	0000f497          	auipc	s1,0xf
    800007e6:	37648493          	addi	s1,s1,886 # 8000fb58 <pr>
    800007ea:	00007597          	auipc	a1,0x7
    800007ee:	83e58593          	addi	a1,a1,-1986 # 80007028 <etext+0x28>
    800007f2:	8526                	mv	a0,s1
    800007f4:	386000ef          	jal	80000b7a <initlock>
  pr.locking = 1;
    800007f8:	4785                	li	a5,1
    800007fa:	cc9c                	sw	a5,24(s1)
}
    800007fc:	60e2                	ld	ra,24(sp)
    800007fe:	6442                	ld	s0,16(sp)
    80000800:	64a2                	ld	s1,8(sp)
    80000802:	6105                	addi	sp,sp,32
    80000804:	8082                	ret

0000000080000806 <uartinit>:

void uartstart();

void
uartinit(void)
{
    80000806:	1141                	addi	sp,sp,-16
    80000808:	e406                	sd	ra,8(sp)
    8000080a:	e022                	sd	s0,0(sp)
    8000080c:	0800                	addi	s0,sp,16
  // disable interrupts.
  WriteReg(IER, 0x00);
    8000080e:	100007b7          	lui	a5,0x10000
    80000812:	000780a3          	sb	zero,1(a5) # 10000001 <_entry-0x6fffffff>

  // special mode to set baud rate.
  WriteReg(LCR, LCR_BAUD_LATCH);
    80000816:	10000737          	lui	a4,0x10000
    8000081a:	f8000693          	li	a3,-128
    8000081e:	00d701a3          	sb	a3,3(a4) # 10000003 <_entry-0x6ffffffd>

  // LSB for baud rate of 38.4K.
  WriteReg(0, 0x03);
    80000822:	468d                	li	a3,3
    80000824:	10000637          	lui	a2,0x10000
    80000828:	00d60023          	sb	a3,0(a2) # 10000000 <_entry-0x70000000>

  // MSB for baud rate of 38.4K.
  WriteReg(1, 0x00);
    8000082c:	000780a3          	sb	zero,1(a5)

  // leave set-baud mode,
  // and set word length to 8 bits, no parity.
  WriteReg(LCR, LCR_EIGHT_BITS);
    80000830:	00d701a3          	sb	a3,3(a4)

  // reset and enable FIFOs.
  WriteReg(FCR, FCR_FIFO_ENABLE | FCR_FIFO_CLEAR);
    80000834:	8732                	mv	a4,a2
    80000836:	461d                	li	a2,7
    80000838:	00c70123          	sb	a2,2(a4)

  // enable transmit and receive interrupts.
  WriteReg(IER, IER_TX_ENABLE | IER_RX_ENABLE);
    8000083c:	00d780a3          	sb	a3,1(a5)

  initlock(&uart_tx_lock, "uart");
    80000840:	00006597          	auipc	a1,0x6
    80000844:	7f058593          	addi	a1,a1,2032 # 80007030 <etext+0x30>
    80000848:	0000f517          	auipc	a0,0xf
    8000084c:	33050513          	addi	a0,a0,816 # 8000fb78 <uart_tx_lock>
    80000850:	32a000ef          	jal	80000b7a <initlock>
}
    80000854:	60a2                	ld	ra,8(sp)
    80000856:	6402                	ld	s0,0(sp)
    80000858:	0141                	addi	sp,sp,16
    8000085a:	8082                	ret

000000008000085c <uartputc_sync>:
// use interrupts, for use by kernel printf() and
// to echo characters. it spins waiting for the uart's
// output register to be empty.
void
uartputc_sync(int c)
{
    8000085c:	1101                	addi	sp,sp,-32
    8000085e:	ec06                	sd	ra,24(sp)
    80000860:	e822                	sd	s0,16(sp)
    80000862:	e426                	sd	s1,8(sp)
    80000864:	1000                	addi	s0,sp,32
    80000866:	84aa                	mv	s1,a0
  push_off();
    80000868:	356000ef          	jal	80000bbe <push_off>

  if(panicked){
    8000086c:	00007797          	auipc	a5,0x7
    80000870:	2047a783          	lw	a5,516(a5) # 80007a70 <panicked>
    80000874:	e795                	bnez	a5,800008a0 <uartputc_sync+0x44>
    for(;;)
      ;
  }

  // wait for Transmit Holding Empty to be set in LSR.
  while((ReadReg(LSR) & LSR_TX_IDLE) == 0)
    80000876:	10000737          	lui	a4,0x10000
    8000087a:	0715                	addi	a4,a4,5 # 10000005 <_entry-0x6ffffffb>
    8000087c:	00074783          	lbu	a5,0(a4)
    80000880:	0207f793          	andi	a5,a5,32
    80000884:	dfe5                	beqz	a5,8000087c <uartputc_sync+0x20>
    ;
  WriteReg(THR, c);
    80000886:	0ff4f513          	zext.b	a0,s1
    8000088a:	100007b7          	lui	a5,0x10000
    8000088e:	00a78023          	sb	a0,0(a5) # 10000000 <_entry-0x70000000>

  pop_off();
    80000892:	3b0000ef          	jal	80000c42 <pop_off>
}
    80000896:	60e2                	ld	ra,24(sp)
    80000898:	6442                	ld	s0,16(sp)
    8000089a:	64a2                	ld	s1,8(sp)
    8000089c:	6105                	addi	sp,sp,32
    8000089e:	8082                	ret
    for(;;)
    800008a0:	a001                	j	800008a0 <uartputc_sync+0x44>

00000000800008a2 <uartstart>:
// called from both the top- and bottom-half.
void
uartstart()
{
  while(1){
    if(uart_tx_w == uart_tx_r){
    800008a2:	00007797          	auipc	a5,0x7
    800008a6:	1d67b783          	ld	a5,470(a5) # 80007a78 <uart_tx_r>
    800008aa:	00007717          	auipc	a4,0x7
    800008ae:	1d673703          	ld	a4,470(a4) # 80007a80 <uart_tx_w>
    800008b2:	08f70163          	beq	a4,a5,80000934 <uartstart+0x92>
{
    800008b6:	7139                	addi	sp,sp,-64
    800008b8:	fc06                	sd	ra,56(sp)
    800008ba:	f822                	sd	s0,48(sp)
    800008bc:	f426                	sd	s1,40(sp)
    800008be:	f04a                	sd	s2,32(sp)
    800008c0:	ec4e                	sd	s3,24(sp)
    800008c2:	e852                	sd	s4,16(sp)
    800008c4:	e456                	sd	s5,8(sp)
    800008c6:	e05a                	sd	s6,0(sp)
    800008c8:	0080                	addi	s0,sp,64
      // transmit buffer is empty.
      ReadReg(ISR);
      return;
    }
    
    if((ReadReg(LSR) & LSR_TX_IDLE) == 0){
    800008ca:	10000937          	lui	s2,0x10000
    800008ce:	0915                	addi	s2,s2,5 # 10000005 <_entry-0x6ffffffb>
      // so we cannot give it another byte.
      // it will interrupt when it's ready for a new byte.
      return;
    }
    
    int c = uart_tx_buf[uart_tx_r % UART_TX_BUF_SIZE];
    800008d0:	0000fa97          	auipc	s5,0xf
    800008d4:	2a8a8a93          	addi	s5,s5,680 # 8000fb78 <uart_tx_lock>
    uart_tx_r += 1;
    800008d8:	00007497          	auipc	s1,0x7
    800008dc:	1a048493          	addi	s1,s1,416 # 80007a78 <uart_tx_r>
    
    // maybe uartputc() is waiting for space in the buffer.
    wakeup(&uart_tx_r);
    
    WriteReg(THR, c);
    800008e0:	10000a37          	lui	s4,0x10000
    if(uart_tx_w == uart_tx_r){
    800008e4:	00007997          	auipc	s3,0x7
    800008e8:	19c98993          	addi	s3,s3,412 # 80007a80 <uart_tx_w>
    if((ReadReg(LSR) & LSR_TX_IDLE) == 0){
    800008ec:	00094703          	lbu	a4,0(s2)
    800008f0:	02077713          	andi	a4,a4,32
    800008f4:	c715                	beqz	a4,80000920 <uartstart+0x7e>
    int c = uart_tx_buf[uart_tx_r % UART_TX_BUF_SIZE];
    800008f6:	01f7f713          	andi	a4,a5,31
    800008fa:	9756                	add	a4,a4,s5
    800008fc:	01874b03          	lbu	s6,24(a4)
    uart_tx_r += 1;
    80000900:	0785                	addi	a5,a5,1
    80000902:	e09c                	sd	a5,0(s1)
    wakeup(&uart_tx_r);
    80000904:	8526                	mv	a0,s1
    80000906:	175010ef          	jal	8000227a <wakeup>
    WriteReg(THR, c);
    8000090a:	016a0023          	sb	s6,0(s4) # 10000000 <_entry-0x70000000>
    if(uart_tx_w == uart_tx_r){
    8000090e:	609c                	ld	a5,0(s1)
    80000910:	0009b703          	ld	a4,0(s3)
    80000914:	fcf71ce3          	bne	a4,a5,800008ec <uartstart+0x4a>
      ReadReg(ISR);
    80000918:	100007b7          	lui	a5,0x10000
    8000091c:	0027c783          	lbu	a5,2(a5) # 10000002 <_entry-0x6ffffffe>
  }
}
    80000920:	70e2                	ld	ra,56(sp)
    80000922:	7442                	ld	s0,48(sp)
    80000924:	74a2                	ld	s1,40(sp)
    80000926:	7902                	ld	s2,32(sp)
    80000928:	69e2                	ld	s3,24(sp)
    8000092a:	6a42                	ld	s4,16(sp)
    8000092c:	6aa2                	ld	s5,8(sp)
    8000092e:	6b02                	ld	s6,0(sp)
    80000930:	6121                	addi	sp,sp,64
    80000932:	8082                	ret
      ReadReg(ISR);
    80000934:	100007b7          	lui	a5,0x10000
    80000938:	0027c783          	lbu	a5,2(a5) # 10000002 <_entry-0x6ffffffe>
      return;
    8000093c:	8082                	ret

000000008000093e <uartputc>:
{
    8000093e:	7179                	addi	sp,sp,-48
    80000940:	f406                	sd	ra,40(sp)
    80000942:	f022                	sd	s0,32(sp)
    80000944:	ec26                	sd	s1,24(sp)
    80000946:	e84a                	sd	s2,16(sp)
    80000948:	e44e                	sd	s3,8(sp)
    8000094a:	e052                	sd	s4,0(sp)
    8000094c:	1800                	addi	s0,sp,48
    8000094e:	8a2a                	mv	s4,a0
  acquire(&uart_tx_lock);
    80000950:	0000f517          	auipc	a0,0xf
    80000954:	22850513          	addi	a0,a0,552 # 8000fb78 <uart_tx_lock>
    80000958:	2a6000ef          	jal	80000bfe <acquire>
  if(panicked){
    8000095c:	00007797          	auipc	a5,0x7
    80000960:	1147a783          	lw	a5,276(a5) # 80007a70 <panicked>
    80000964:	efbd                	bnez	a5,800009e2 <uartputc+0xa4>
  while(uart_tx_w == uart_tx_r + UART_TX_BUF_SIZE){
    80000966:	00007717          	auipc	a4,0x7
    8000096a:	11a73703          	ld	a4,282(a4) # 80007a80 <uart_tx_w>
    8000096e:	00007797          	auipc	a5,0x7
    80000972:	10a7b783          	ld	a5,266(a5) # 80007a78 <uart_tx_r>
    80000976:	02078793          	addi	a5,a5,32
    sleep(&uart_tx_r, &uart_tx_lock);
    8000097a:	0000f997          	auipc	s3,0xf
    8000097e:	1fe98993          	addi	s3,s3,510 # 8000fb78 <uart_tx_lock>
    80000982:	00007497          	auipc	s1,0x7
    80000986:	0f648493          	addi	s1,s1,246 # 80007a78 <uart_tx_r>
  while(uart_tx_w == uart_tx_r + UART_TX_BUF_SIZE){
    8000098a:	00007917          	auipc	s2,0x7
    8000098e:	0f690913          	addi	s2,s2,246 # 80007a80 <uart_tx_w>
    80000992:	00e79d63          	bne	a5,a4,800009ac <uartputc+0x6e>
    sleep(&uart_tx_r, &uart_tx_lock);
    80000996:	85ce                	mv	a1,s3
    80000998:	8526                	mv	a0,s1
    8000099a:	095010ef          	jal	8000222e <sleep>
  while(uart_tx_w == uart_tx_r + UART_TX_BUF_SIZE){
    8000099e:	00093703          	ld	a4,0(s2)
    800009a2:	609c                	ld	a5,0(s1)
    800009a4:	02078793          	addi	a5,a5,32
    800009a8:	fee787e3          	beq	a5,a4,80000996 <uartputc+0x58>
  uart_tx_buf[uart_tx_w % UART_TX_BUF_SIZE] = c;
    800009ac:	0000f497          	auipc	s1,0xf
    800009b0:	1cc48493          	addi	s1,s1,460 # 8000fb78 <uart_tx_lock>
    800009b4:	01f77793          	andi	a5,a4,31
    800009b8:	97a6                	add	a5,a5,s1
    800009ba:	01478c23          	sb	s4,24(a5)
  uart_tx_w += 1;
    800009be:	0705                	addi	a4,a4,1
    800009c0:	00007797          	auipc	a5,0x7
    800009c4:	0ce7b023          	sd	a4,192(a5) # 80007a80 <uart_tx_w>
  uartstart();
    800009c8:	edbff0ef          	jal	800008a2 <uartstart>
  release(&uart_tx_lock);
    800009cc:	8526                	mv	a0,s1
    800009ce:	2c4000ef          	jal	80000c92 <release>
}
    800009d2:	70a2                	ld	ra,40(sp)
    800009d4:	7402                	ld	s0,32(sp)
    800009d6:	64e2                	ld	s1,24(sp)
    800009d8:	6942                	ld	s2,16(sp)
    800009da:	69a2                	ld	s3,8(sp)
    800009dc:	6a02                	ld	s4,0(sp)
    800009de:	6145                	addi	sp,sp,48
    800009e0:	8082                	ret
    for(;;)
    800009e2:	a001                	j	800009e2 <uartputc+0xa4>

00000000800009e4 <uartgetc>:

// read one input character from the UART.
// return -1 if none is waiting.
int
uartgetc(void)
{
    800009e4:	1141                	addi	sp,sp,-16
    800009e6:	e406                	sd	ra,8(sp)
    800009e8:	e022                	sd	s0,0(sp)
    800009ea:	0800                	addi	s0,sp,16
  if(ReadReg(LSR) & 0x01){
    800009ec:	100007b7          	lui	a5,0x10000
    800009f0:	0057c783          	lbu	a5,5(a5) # 10000005 <_entry-0x6ffffffb>
    800009f4:	8b85                	andi	a5,a5,1
    800009f6:	cb89                	beqz	a5,80000a08 <uartgetc+0x24>
    // input data is ready.
    return ReadReg(RHR);
    800009f8:	100007b7          	lui	a5,0x10000
    800009fc:	0007c503          	lbu	a0,0(a5) # 10000000 <_entry-0x70000000>
  } else {
    return -1;
  }
}
    80000a00:	60a2                	ld	ra,8(sp)
    80000a02:	6402                	ld	s0,0(sp)
    80000a04:	0141                	addi	sp,sp,16
    80000a06:	8082                	ret
    return -1;
    80000a08:	557d                	li	a0,-1
    80000a0a:	bfdd                	j	80000a00 <uartgetc+0x1c>

0000000080000a0c <uartintr>:
// handle a uart interrupt, raised because input has
// arrived, or the uart is ready for more output, or
// both. called from devintr().
void
uartintr(void)
{
    80000a0c:	1101                	addi	sp,sp,-32
    80000a0e:	ec06                	sd	ra,24(sp)
    80000a10:	e822                	sd	s0,16(sp)
    80000a12:	e426                	sd	s1,8(sp)
    80000a14:	1000                	addi	s0,sp,32
  // read and process incoming characters.
  while(1){
    int c = uartgetc();
    if(c == -1)
    80000a16:	54fd                	li	s1,-1
    int c = uartgetc();
    80000a18:	fcdff0ef          	jal	800009e4 <uartgetc>
    if(c == -1)
    80000a1c:	00950563          	beq	a0,s1,80000a26 <uartintr+0x1a>
      break;
    consoleintr(c);
    80000a20:	861ff0ef          	jal	80000280 <consoleintr>
  while(1){
    80000a24:	bfd5                	j	80000a18 <uartintr+0xc>
  }

  // send buffered characters.
  acquire(&uart_tx_lock);
    80000a26:	0000f497          	auipc	s1,0xf
    80000a2a:	15248493          	addi	s1,s1,338 # 8000fb78 <uart_tx_lock>
    80000a2e:	8526                	mv	a0,s1
    80000a30:	1ce000ef          	jal	80000bfe <acquire>
  uartstart();
    80000a34:	e6fff0ef          	jal	800008a2 <uartstart>
  release(&uart_tx_lock);
    80000a38:	8526                	mv	a0,s1
    80000a3a:	258000ef          	jal	80000c92 <release>
}
    80000a3e:	60e2                	ld	ra,24(sp)
    80000a40:	6442                	ld	s0,16(sp)
    80000a42:	64a2                	ld	s1,8(sp)
    80000a44:	6105                	addi	sp,sp,32
    80000a46:	8082                	ret

0000000080000a48 <kfree>:
// which normally should have been returned by a
// call to kalloc().  (The exception is when
// initializing the allocator; see kinit above.)
void
kfree(void *pa)
{
    80000a48:	1101                	addi	sp,sp,-32
    80000a4a:	ec06                	sd	ra,24(sp)
    80000a4c:	e822                	sd	s0,16(sp)
    80000a4e:	e426                	sd	s1,8(sp)
    80000a50:	e04a                	sd	s2,0(sp)
    80000a52:	1000                	addi	s0,sp,32
  struct run *r;

  if(((uint64)pa % PGSIZE) != 0 || (char*)pa < end || (uint64)pa >= PHYSTOP)
    80000a54:	03451793          	slli	a5,a0,0x34
    80000a58:	e7a9                	bnez	a5,80000aa2 <kfree+0x5a>
    80000a5a:	84aa                	mv	s1,a0
    80000a5c:	0002a797          	auipc	a5,0x2a
    80000a60:	f8478793          	addi	a5,a5,-124 # 8002a9e0 <end>
    80000a64:	02f56f63          	bltu	a0,a5,80000aa2 <kfree+0x5a>
    80000a68:	47c5                	li	a5,17
    80000a6a:	07ee                	slli	a5,a5,0x1b
    80000a6c:	02f57b63          	bgeu	a0,a5,80000aa2 <kfree+0x5a>
    panic("kfree");

  // Fill with junk to catch dangling refs.
  memset(pa, 1, PGSIZE);
    80000a70:	6605                	lui	a2,0x1
    80000a72:	4585                	li	a1,1
    80000a74:	25a000ef          	jal	80000cce <memset>

  r = (struct run*)pa;

  acquire(&kmem.lock);
    80000a78:	0000f917          	auipc	s2,0xf
    80000a7c:	13890913          	addi	s2,s2,312 # 8000fbb0 <kmem>
    80000a80:	854a                	mv	a0,s2
    80000a82:	17c000ef          	jal	80000bfe <acquire>
  r->next = kmem.freelist;
    80000a86:	01893783          	ld	a5,24(s2)
    80000a8a:	e09c                	sd	a5,0(s1)
  kmem.freelist = r;
    80000a8c:	00993c23          	sd	s1,24(s2)
  release(&kmem.lock);
    80000a90:	854a                	mv	a0,s2
    80000a92:	200000ef          	jal	80000c92 <release>
}
    80000a96:	60e2                	ld	ra,24(sp)
    80000a98:	6442                	ld	s0,16(sp)
    80000a9a:	64a2                	ld	s1,8(sp)
    80000a9c:	6902                	ld	s2,0(sp)
    80000a9e:	6105                	addi	sp,sp,32
    80000aa0:	8082                	ret
    panic("kfree");
    80000aa2:	00006517          	auipc	a0,0x6
    80000aa6:	59650513          	addi	a0,a0,1430 # 80007038 <etext+0x38>
    80000aaa:	cf5ff0ef          	jal	8000079e <panic>

0000000080000aae <freerange>:
{
    80000aae:	7179                	addi	sp,sp,-48
    80000ab0:	f406                	sd	ra,40(sp)
    80000ab2:	f022                	sd	s0,32(sp)
    80000ab4:	ec26                	sd	s1,24(sp)
    80000ab6:	1800                	addi	s0,sp,48
  p = (char*)PGROUNDUP((uint64)pa_start);
    80000ab8:	6785                	lui	a5,0x1
    80000aba:	fff78713          	addi	a4,a5,-1 # fff <_entry-0x7ffff001>
    80000abe:	00e504b3          	add	s1,a0,a4
    80000ac2:	777d                	lui	a4,0xfffff
    80000ac4:	8cf9                	and	s1,s1,a4
  for(; p + PGSIZE <= (char*)pa_end; p += PGSIZE)
    80000ac6:	94be                	add	s1,s1,a5
    80000ac8:	0295e263          	bltu	a1,s1,80000aec <freerange+0x3e>
    80000acc:	e84a                	sd	s2,16(sp)
    80000ace:	e44e                	sd	s3,8(sp)
    80000ad0:	e052                	sd	s4,0(sp)
    80000ad2:	892e                	mv	s2,a1
    kfree(p);
    80000ad4:	8a3a                	mv	s4,a4
  for(; p + PGSIZE <= (char*)pa_end; p += PGSIZE)
    80000ad6:	89be                	mv	s3,a5
    kfree(p);
    80000ad8:	01448533          	add	a0,s1,s4
    80000adc:	f6dff0ef          	jal	80000a48 <kfree>
  for(; p + PGSIZE <= (char*)pa_end; p += PGSIZE)
    80000ae0:	94ce                	add	s1,s1,s3
    80000ae2:	fe997be3          	bgeu	s2,s1,80000ad8 <freerange+0x2a>
    80000ae6:	6942                	ld	s2,16(sp)
    80000ae8:	69a2                	ld	s3,8(sp)
    80000aea:	6a02                	ld	s4,0(sp)
}
    80000aec:	70a2                	ld	ra,40(sp)
    80000aee:	7402                	ld	s0,32(sp)
    80000af0:	64e2                	ld	s1,24(sp)
    80000af2:	6145                	addi	sp,sp,48
    80000af4:	8082                	ret

0000000080000af6 <kinit>:
{
    80000af6:	1141                	addi	sp,sp,-16
    80000af8:	e406                	sd	ra,8(sp)
    80000afa:	e022                	sd	s0,0(sp)
    80000afc:	0800                	addi	s0,sp,16
  initlock(&kmem.lock, "kmem");
    80000afe:	00006597          	auipc	a1,0x6
    80000b02:	54258593          	addi	a1,a1,1346 # 80007040 <etext+0x40>
    80000b06:	0000f517          	auipc	a0,0xf
    80000b0a:	0aa50513          	addi	a0,a0,170 # 8000fbb0 <kmem>
    80000b0e:	06c000ef          	jal	80000b7a <initlock>
  freerange(end, (void*)PHYSTOP);
    80000b12:	45c5                	li	a1,17
    80000b14:	05ee                	slli	a1,a1,0x1b
    80000b16:	0002a517          	auipc	a0,0x2a
    80000b1a:	eca50513          	addi	a0,a0,-310 # 8002a9e0 <end>
    80000b1e:	f91ff0ef          	jal	80000aae <freerange>
}
    80000b22:	60a2                	ld	ra,8(sp)
    80000b24:	6402                	ld	s0,0(sp)
    80000b26:	0141                	addi	sp,sp,16
    80000b28:	8082                	ret

0000000080000b2a <kalloc>:
// Allocate one 4096-byte page of physical memory.
// Returns a pointer that the kernel can use.
// Returns 0 if the memory cannot be allocated.
void *
kalloc(void)
{
    80000b2a:	1101                	addi	sp,sp,-32
    80000b2c:	ec06                	sd	ra,24(sp)
    80000b2e:	e822                	sd	s0,16(sp)
    80000b30:	e426                	sd	s1,8(sp)
    80000b32:	1000                	addi	s0,sp,32
  struct run *r;

  acquire(&kmem.lock);
    80000b34:	0000f497          	auipc	s1,0xf
    80000b38:	07c48493          	addi	s1,s1,124 # 8000fbb0 <kmem>
    80000b3c:	8526                	mv	a0,s1
    80000b3e:	0c0000ef          	jal	80000bfe <acquire>
  r = kmem.freelist;
    80000b42:	6c84                	ld	s1,24(s1)
  if(r)
    80000b44:	c485                	beqz	s1,80000b6c <kalloc+0x42>
    kmem.freelist = r->next;
    80000b46:	609c                	ld	a5,0(s1)
    80000b48:	0000f517          	auipc	a0,0xf
    80000b4c:	06850513          	addi	a0,a0,104 # 8000fbb0 <kmem>
    80000b50:	ed1c                	sd	a5,24(a0)
  release(&kmem.lock);
    80000b52:	140000ef          	jal	80000c92 <release>

  if(r)
    memset((char*)r, 5, PGSIZE); // fill with junk
    80000b56:	6605                	lui	a2,0x1
    80000b58:	4595                	li	a1,5
    80000b5a:	8526                	mv	a0,s1
    80000b5c:	172000ef          	jal	80000cce <memset>
  return (void*)r;
}
    80000b60:	8526                	mv	a0,s1
    80000b62:	60e2                	ld	ra,24(sp)
    80000b64:	6442                	ld	s0,16(sp)
    80000b66:	64a2                	ld	s1,8(sp)
    80000b68:	6105                	addi	sp,sp,32
    80000b6a:	8082                	ret
  release(&kmem.lock);
    80000b6c:	0000f517          	auipc	a0,0xf
    80000b70:	04450513          	addi	a0,a0,68 # 8000fbb0 <kmem>
    80000b74:	11e000ef          	jal	80000c92 <release>
  if(r)
    80000b78:	b7e5                	j	80000b60 <kalloc+0x36>

0000000080000b7a <initlock>:
#include "proc.h"
#include "defs.h"

void
initlock(struct spinlock *lk, char *name)
{
    80000b7a:	1141                	addi	sp,sp,-16
    80000b7c:	e406                	sd	ra,8(sp)
    80000b7e:	e022                	sd	s0,0(sp)
    80000b80:	0800                	addi	s0,sp,16
  lk->name = name;
    80000b82:	e50c                	sd	a1,8(a0)
  lk->locked = 0;
    80000b84:	00052023          	sw	zero,0(a0)
  lk->cpu = 0;
    80000b88:	00053823          	sd	zero,16(a0)
}
    80000b8c:	60a2                	ld	ra,8(sp)
    80000b8e:	6402                	ld	s0,0(sp)
    80000b90:	0141                	addi	sp,sp,16
    80000b92:	8082                	ret

0000000080000b94 <holding>:
// Interrupts must be off.
int
holding(struct spinlock *lk)
{
  int r;
  r = (lk->locked && lk->cpu == mycpu());
    80000b94:	411c                	lw	a5,0(a0)
    80000b96:	e399                	bnez	a5,80000b9c <holding+0x8>
    80000b98:	4501                	li	a0,0
  return r;
}
    80000b9a:	8082                	ret
{
    80000b9c:	1101                	addi	sp,sp,-32
    80000b9e:	ec06                	sd	ra,24(sp)
    80000ba0:	e822                	sd	s0,16(sp)
    80000ba2:	e426                	sd	s1,8(sp)
    80000ba4:	1000                	addi	s0,sp,32
  r = (lk->locked && lk->cpu == mycpu());
    80000ba6:	6904                	ld	s1,16(a0)
    80000ba8:	515000ef          	jal	800018bc <mycpu>
    80000bac:	40a48533          	sub	a0,s1,a0
    80000bb0:	00153513          	seqz	a0,a0
}
    80000bb4:	60e2                	ld	ra,24(sp)
    80000bb6:	6442                	ld	s0,16(sp)
    80000bb8:	64a2                	ld	s1,8(sp)
    80000bba:	6105                	addi	sp,sp,32
    80000bbc:	8082                	ret

0000000080000bbe <push_off>:
// it takes two pop_off()s to undo two push_off()s.  Also, if interrupts
// are initially off, then push_off, pop_off leaves them off.

void
push_off(void)
{
    80000bbe:	1101                	addi	sp,sp,-32
    80000bc0:	ec06                	sd	ra,24(sp)
    80000bc2:	e822                	sd	s0,16(sp)
    80000bc4:	e426                	sd	s1,8(sp)
    80000bc6:	1000                	addi	s0,sp,32
  asm volatile("csrr %0, sstatus" : "=r" (x) );
    80000bc8:	100024f3          	csrr	s1,sstatus
    80000bcc:	100027f3          	csrr	a5,sstatus
  w_sstatus(r_sstatus() & ~SSTATUS_SIE);
    80000bd0:	9bf5                	andi	a5,a5,-3
  asm volatile("csrw sstatus, %0" : : "r" (x));
    80000bd2:	10079073          	csrw	sstatus,a5
  int old = intr_get();

  intr_off();
  if(mycpu()->noff == 0)
    80000bd6:	4e7000ef          	jal	800018bc <mycpu>
    80000bda:	5d3c                	lw	a5,120(a0)
    80000bdc:	cb99                	beqz	a5,80000bf2 <push_off+0x34>
    mycpu()->intena = old;
  mycpu()->noff += 1;
    80000bde:	4df000ef          	jal	800018bc <mycpu>
    80000be2:	5d3c                	lw	a5,120(a0)
    80000be4:	2785                	addiw	a5,a5,1
    80000be6:	dd3c                	sw	a5,120(a0)
}
    80000be8:	60e2                	ld	ra,24(sp)
    80000bea:	6442                	ld	s0,16(sp)
    80000bec:	64a2                	ld	s1,8(sp)
    80000bee:	6105                	addi	sp,sp,32
    80000bf0:	8082                	ret
    mycpu()->intena = old;
    80000bf2:	4cb000ef          	jal	800018bc <mycpu>
  return (x & SSTATUS_SIE) != 0;
    80000bf6:	8085                	srli	s1,s1,0x1
    80000bf8:	8885                	andi	s1,s1,1
    80000bfa:	dd64                	sw	s1,124(a0)
    80000bfc:	b7cd                	j	80000bde <push_off+0x20>

0000000080000bfe <acquire>:
{
    80000bfe:	1101                	addi	sp,sp,-32
    80000c00:	ec06                	sd	ra,24(sp)
    80000c02:	e822                	sd	s0,16(sp)
    80000c04:	e426                	sd	s1,8(sp)
    80000c06:	1000                	addi	s0,sp,32
    80000c08:	84aa                	mv	s1,a0
  push_off(); // disable interrupts to avoid deadlock.
    80000c0a:	fb5ff0ef          	jal	80000bbe <push_off>
  if(holding(lk))
    80000c0e:	8526                	mv	a0,s1
    80000c10:	f85ff0ef          	jal	80000b94 <holding>
  while(__sync_lock_test_and_set(&lk->locked, 1) != 0)
    80000c14:	4705                	li	a4,1
  if(holding(lk))
    80000c16:	e105                	bnez	a0,80000c36 <acquire+0x38>
  while(__sync_lock_test_and_set(&lk->locked, 1) != 0)
    80000c18:	87ba                	mv	a5,a4
    80000c1a:	0cf4a7af          	amoswap.w.aq	a5,a5,(s1)
    80000c1e:	2781                	sext.w	a5,a5
    80000c20:	ffe5                	bnez	a5,80000c18 <acquire+0x1a>
  __sync_synchronize();
    80000c22:	0330000f          	fence	rw,rw
  lk->cpu = mycpu();
    80000c26:	497000ef          	jal	800018bc <mycpu>
    80000c2a:	e888                	sd	a0,16(s1)
}
    80000c2c:	60e2                	ld	ra,24(sp)
    80000c2e:	6442                	ld	s0,16(sp)
    80000c30:	64a2                	ld	s1,8(sp)
    80000c32:	6105                	addi	sp,sp,32
    80000c34:	8082                	ret
    panic("acquire");
    80000c36:	00006517          	auipc	a0,0x6
    80000c3a:	41250513          	addi	a0,a0,1042 # 80007048 <etext+0x48>
    80000c3e:	b61ff0ef          	jal	8000079e <panic>

0000000080000c42 <pop_off>:

void
pop_off(void)
{
    80000c42:	1141                	addi	sp,sp,-16
    80000c44:	e406                	sd	ra,8(sp)
    80000c46:	e022                	sd	s0,0(sp)
    80000c48:	0800                	addi	s0,sp,16
  struct cpu *c = mycpu();
    80000c4a:	473000ef          	jal	800018bc <mycpu>
  asm volatile("csrr %0, sstatus" : "=r" (x) );
    80000c4e:	100027f3          	csrr	a5,sstatus
  return (x & SSTATUS_SIE) != 0;
    80000c52:	8b89                	andi	a5,a5,2
  if(intr_get())
    80000c54:	e39d                	bnez	a5,80000c7a <pop_off+0x38>
    panic("pop_off - interruptible");
  if(c->noff < 1)
    80000c56:	5d3c                	lw	a5,120(a0)
    80000c58:	02f05763          	blez	a5,80000c86 <pop_off+0x44>
    panic("pop_off");
  c->noff -= 1;
    80000c5c:	37fd                	addiw	a5,a5,-1
    80000c5e:	dd3c                	sw	a5,120(a0)
  if(c->noff == 0 && c->intena)
    80000c60:	eb89                	bnez	a5,80000c72 <pop_off+0x30>
    80000c62:	5d7c                	lw	a5,124(a0)
    80000c64:	c799                	beqz	a5,80000c72 <pop_off+0x30>
  asm volatile("csrr %0, sstatus" : "=r" (x) );
    80000c66:	100027f3          	csrr	a5,sstatus
  w_sstatus(r_sstatus() | SSTATUS_SIE);
    80000c6a:	0027e793          	ori	a5,a5,2
  asm volatile("csrw sstatus, %0" : : "r" (x));
    80000c6e:	10079073          	csrw	sstatus,a5
    intr_on();
}
    80000c72:	60a2                	ld	ra,8(sp)
    80000c74:	6402                	ld	s0,0(sp)
    80000c76:	0141                	addi	sp,sp,16
    80000c78:	8082                	ret
    panic("pop_off - interruptible");
    80000c7a:	00006517          	auipc	a0,0x6
    80000c7e:	3d650513          	addi	a0,a0,982 # 80007050 <etext+0x50>
    80000c82:	b1dff0ef          	jal	8000079e <panic>
    panic("pop_off");
    80000c86:	00006517          	auipc	a0,0x6
    80000c8a:	3e250513          	addi	a0,a0,994 # 80007068 <etext+0x68>
    80000c8e:	b11ff0ef          	jal	8000079e <panic>

0000000080000c92 <release>:
{
    80000c92:	1101                	addi	sp,sp,-32
    80000c94:	ec06                	sd	ra,24(sp)
    80000c96:	e822                	sd	s0,16(sp)
    80000c98:	e426                	sd	s1,8(sp)
    80000c9a:	1000                	addi	s0,sp,32
    80000c9c:	84aa                	mv	s1,a0
  if(!holding(lk))
    80000c9e:	ef7ff0ef          	jal	80000b94 <holding>
    80000ca2:	c105                	beqz	a0,80000cc2 <release+0x30>
  lk->cpu = 0;
    80000ca4:	0004b823          	sd	zero,16(s1)
  __sync_synchronize();
    80000ca8:	0330000f          	fence	rw,rw
  __sync_lock_release(&lk->locked);
    80000cac:	0310000f          	fence	rw,w
    80000cb0:	0004a023          	sw	zero,0(s1)
  pop_off();
    80000cb4:	f8fff0ef          	jal	80000c42 <pop_off>
}
    80000cb8:	60e2                	ld	ra,24(sp)
    80000cba:	6442                	ld	s0,16(sp)
    80000cbc:	64a2                	ld	s1,8(sp)
    80000cbe:	6105                	addi	sp,sp,32
    80000cc0:	8082                	ret
    panic("release");
    80000cc2:	00006517          	auipc	a0,0x6
    80000cc6:	3ae50513          	addi	a0,a0,942 # 80007070 <etext+0x70>
    80000cca:	ad5ff0ef          	jal	8000079e <panic>

0000000080000cce <memset>:
#include "types.h"

void*
memset(void *dst, int c, uint n)
{
    80000cce:	1141                	addi	sp,sp,-16
    80000cd0:	e406                	sd	ra,8(sp)
    80000cd2:	e022                	sd	s0,0(sp)
    80000cd4:	0800                	addi	s0,sp,16
  char *cdst = (char *) dst;
  int i;
  for(i = 0; i < n; i++){
    80000cd6:	ca19                	beqz	a2,80000cec <memset+0x1e>
    80000cd8:	87aa                	mv	a5,a0
    80000cda:	1602                	slli	a2,a2,0x20
    80000cdc:	9201                	srli	a2,a2,0x20
    80000cde:	00a60733          	add	a4,a2,a0
    cdst[i] = c;
    80000ce2:	00b78023          	sb	a1,0(a5)
  for(i = 0; i < n; i++){
    80000ce6:	0785                	addi	a5,a5,1
    80000ce8:	fee79de3          	bne	a5,a4,80000ce2 <memset+0x14>
  }
  return dst;
}
    80000cec:	60a2                	ld	ra,8(sp)
    80000cee:	6402                	ld	s0,0(sp)
    80000cf0:	0141                	addi	sp,sp,16
    80000cf2:	8082                	ret

0000000080000cf4 <memcmp>:

int
memcmp(const void *v1, const void *v2, uint n)
{
    80000cf4:	1141                	addi	sp,sp,-16
    80000cf6:	e406                	sd	ra,8(sp)
    80000cf8:	e022                	sd	s0,0(sp)
    80000cfa:	0800                	addi	s0,sp,16
  const uchar *s1, *s2;

  s1 = v1;
  s2 = v2;
  while(n-- > 0){
    80000cfc:	ca0d                	beqz	a2,80000d2e <memcmp+0x3a>
    80000cfe:	fff6069b          	addiw	a3,a2,-1 # fff <_entry-0x7ffff001>
    80000d02:	1682                	slli	a3,a3,0x20
    80000d04:	9281                	srli	a3,a3,0x20
    80000d06:	0685                	addi	a3,a3,1
    80000d08:	96aa                	add	a3,a3,a0
    if(*s1 != *s2)
    80000d0a:	00054783          	lbu	a5,0(a0)
    80000d0e:	0005c703          	lbu	a4,0(a1)
    80000d12:	00e79863          	bne	a5,a4,80000d22 <memcmp+0x2e>
      return *s1 - *s2;
    s1++, s2++;
    80000d16:	0505                	addi	a0,a0,1
    80000d18:	0585                	addi	a1,a1,1
  while(n-- > 0){
    80000d1a:	fed518e3          	bne	a0,a3,80000d0a <memcmp+0x16>
  }

  return 0;
    80000d1e:	4501                	li	a0,0
    80000d20:	a019                	j	80000d26 <memcmp+0x32>
      return *s1 - *s2;
    80000d22:	40e7853b          	subw	a0,a5,a4
}
    80000d26:	60a2                	ld	ra,8(sp)
    80000d28:	6402                	ld	s0,0(sp)
    80000d2a:	0141                	addi	sp,sp,16
    80000d2c:	8082                	ret
  return 0;
    80000d2e:	4501                	li	a0,0
    80000d30:	bfdd                	j	80000d26 <memcmp+0x32>

0000000080000d32 <memmove>:

void*
memmove(void *dst, const void *src, uint n)
{
    80000d32:	1141                	addi	sp,sp,-16
    80000d34:	e406                	sd	ra,8(sp)
    80000d36:	e022                	sd	s0,0(sp)
    80000d38:	0800                	addi	s0,sp,16
  const char *s;
  char *d;

  if(n == 0)
    80000d3a:	c205                	beqz	a2,80000d5a <memmove+0x28>
    return dst;
  
  s = src;
  d = dst;
  if(s < d && s + n > d){
    80000d3c:	02a5e363          	bltu	a1,a0,80000d62 <memmove+0x30>
    s += n;
    d += n;
    while(n-- > 0)
      *--d = *--s;
  } else
    while(n-- > 0)
    80000d40:	1602                	slli	a2,a2,0x20
    80000d42:	9201                	srli	a2,a2,0x20
    80000d44:	00c587b3          	add	a5,a1,a2
{
    80000d48:	872a                	mv	a4,a0
      *d++ = *s++;
    80000d4a:	0585                	addi	a1,a1,1
    80000d4c:	0705                	addi	a4,a4,1 # fffffffffffff001 <end+0xffffffff7ffd4621>
    80000d4e:	fff5c683          	lbu	a3,-1(a1)
    80000d52:	fed70fa3          	sb	a3,-1(a4)
    while(n-- > 0)
    80000d56:	feb79ae3          	bne	a5,a1,80000d4a <memmove+0x18>

  return dst;
}
    80000d5a:	60a2                	ld	ra,8(sp)
    80000d5c:	6402                	ld	s0,0(sp)
    80000d5e:	0141                	addi	sp,sp,16
    80000d60:	8082                	ret
  if(s < d && s + n > d){
    80000d62:	02061693          	slli	a3,a2,0x20
    80000d66:	9281                	srli	a3,a3,0x20
    80000d68:	00d58733          	add	a4,a1,a3
    80000d6c:	fce57ae3          	bgeu	a0,a4,80000d40 <memmove+0xe>
    d += n;
    80000d70:	96aa                	add	a3,a3,a0
    while(n-- > 0)
    80000d72:	fff6079b          	addiw	a5,a2,-1
    80000d76:	1782                	slli	a5,a5,0x20
    80000d78:	9381                	srli	a5,a5,0x20
    80000d7a:	fff7c793          	not	a5,a5
    80000d7e:	97ba                	add	a5,a5,a4
      *--d = *--s;
    80000d80:	177d                	addi	a4,a4,-1
    80000d82:	16fd                	addi	a3,a3,-1
    80000d84:	00074603          	lbu	a2,0(a4)
    80000d88:	00c68023          	sb	a2,0(a3)
    while(n-- > 0)
    80000d8c:	fee79ae3          	bne	a5,a4,80000d80 <memmove+0x4e>
    80000d90:	b7e9                	j	80000d5a <memmove+0x28>

0000000080000d92 <memcpy>:

// memcpy exists to placate GCC.  Use memmove.
void*
memcpy(void *dst, const void *src, uint n)
{
    80000d92:	1141                	addi	sp,sp,-16
    80000d94:	e406                	sd	ra,8(sp)
    80000d96:	e022                	sd	s0,0(sp)
    80000d98:	0800                	addi	s0,sp,16
  return memmove(dst, src, n);
    80000d9a:	f99ff0ef          	jal	80000d32 <memmove>
}
    80000d9e:	60a2                	ld	ra,8(sp)
    80000da0:	6402                	ld	s0,0(sp)
    80000da2:	0141                	addi	sp,sp,16
    80000da4:	8082                	ret

0000000080000da6 <strncmp>:

int
strncmp(const char *p, const char *q, uint n)
{
    80000da6:	1141                	addi	sp,sp,-16
    80000da8:	e406                	sd	ra,8(sp)
    80000daa:	e022                	sd	s0,0(sp)
    80000dac:	0800                	addi	s0,sp,16
  while(n > 0 && *p && *p == *q)
    80000dae:	ce11                	beqz	a2,80000dca <strncmp+0x24>
    80000db0:	00054783          	lbu	a5,0(a0)
    80000db4:	cf89                	beqz	a5,80000dce <strncmp+0x28>
    80000db6:	0005c703          	lbu	a4,0(a1)
    80000dba:	00f71a63          	bne	a4,a5,80000dce <strncmp+0x28>
    n--, p++, q++;
    80000dbe:	367d                	addiw	a2,a2,-1
    80000dc0:	0505                	addi	a0,a0,1
    80000dc2:	0585                	addi	a1,a1,1
  while(n > 0 && *p && *p == *q)
    80000dc4:	f675                	bnez	a2,80000db0 <strncmp+0xa>
  if(n == 0)
    return 0;
    80000dc6:	4501                	li	a0,0
    80000dc8:	a801                	j	80000dd8 <strncmp+0x32>
    80000dca:	4501                	li	a0,0
    80000dcc:	a031                	j	80000dd8 <strncmp+0x32>
  return (uchar)*p - (uchar)*q;
    80000dce:	00054503          	lbu	a0,0(a0)
    80000dd2:	0005c783          	lbu	a5,0(a1)
    80000dd6:	9d1d                	subw	a0,a0,a5
}
    80000dd8:	60a2                	ld	ra,8(sp)
    80000dda:	6402                	ld	s0,0(sp)
    80000ddc:	0141                	addi	sp,sp,16
    80000dde:	8082                	ret

0000000080000de0 <strncpy>:

char*
strncpy(char *s, const char *t, int n)
{
    80000de0:	1141                	addi	sp,sp,-16
    80000de2:	e406                	sd	ra,8(sp)
    80000de4:	e022                	sd	s0,0(sp)
    80000de6:	0800                	addi	s0,sp,16
  char *os;

  os = s;
  while(n-- > 0 && (*s++ = *t++) != 0)
    80000de8:	87aa                	mv	a5,a0
    80000dea:	86b2                	mv	a3,a2
    80000dec:	367d                	addiw	a2,a2,-1
    80000dee:	02d05563          	blez	a3,80000e18 <strncpy+0x38>
    80000df2:	0785                	addi	a5,a5,1
    80000df4:	0005c703          	lbu	a4,0(a1)
    80000df8:	fee78fa3          	sb	a4,-1(a5)
    80000dfc:	0585                	addi	a1,a1,1
    80000dfe:	f775                	bnez	a4,80000dea <strncpy+0xa>
    ;
  while(n-- > 0)
    80000e00:	873e                	mv	a4,a5
    80000e02:	00c05b63          	blez	a2,80000e18 <strncpy+0x38>
    80000e06:	9fb5                	addw	a5,a5,a3
    80000e08:	37fd                	addiw	a5,a5,-1
    *s++ = 0;
    80000e0a:	0705                	addi	a4,a4,1
    80000e0c:	fe070fa3          	sb	zero,-1(a4)
  while(n-- > 0)
    80000e10:	40e786bb          	subw	a3,a5,a4
    80000e14:	fed04be3          	bgtz	a3,80000e0a <strncpy+0x2a>
  return os;
}
    80000e18:	60a2                	ld	ra,8(sp)
    80000e1a:	6402                	ld	s0,0(sp)
    80000e1c:	0141                	addi	sp,sp,16
    80000e1e:	8082                	ret

0000000080000e20 <safestrcpy>:

// Like strncpy but guaranteed to NUL-terminate.
char*
safestrcpy(char *s, const char *t, int n)
{
    80000e20:	1141                	addi	sp,sp,-16
    80000e22:	e406                	sd	ra,8(sp)
    80000e24:	e022                	sd	s0,0(sp)
    80000e26:	0800                	addi	s0,sp,16
  char *os;

  os = s;
  if(n <= 0)
    80000e28:	02c05363          	blez	a2,80000e4e <safestrcpy+0x2e>
    80000e2c:	fff6069b          	addiw	a3,a2,-1
    80000e30:	1682                	slli	a3,a3,0x20
    80000e32:	9281                	srli	a3,a3,0x20
    80000e34:	96ae                	add	a3,a3,a1
    80000e36:	87aa                	mv	a5,a0
    return os;
  while(--n > 0 && (*s++ = *t++) != 0)
    80000e38:	00d58963          	beq	a1,a3,80000e4a <safestrcpy+0x2a>
    80000e3c:	0585                	addi	a1,a1,1
    80000e3e:	0785                	addi	a5,a5,1
    80000e40:	fff5c703          	lbu	a4,-1(a1)
    80000e44:	fee78fa3          	sb	a4,-1(a5)
    80000e48:	fb65                	bnez	a4,80000e38 <safestrcpy+0x18>
    ;
  *s = 0;
    80000e4a:	00078023          	sb	zero,0(a5)
  return os;
}
    80000e4e:	60a2                	ld	ra,8(sp)
    80000e50:	6402                	ld	s0,0(sp)
    80000e52:	0141                	addi	sp,sp,16
    80000e54:	8082                	ret

0000000080000e56 <strlen>:

int
strlen(const char *s)
{
    80000e56:	1141                	addi	sp,sp,-16
    80000e58:	e406                	sd	ra,8(sp)
    80000e5a:	e022                	sd	s0,0(sp)
    80000e5c:	0800                	addi	s0,sp,16
  int n;

  for(n = 0; s[n]; n++)
    80000e5e:	00054783          	lbu	a5,0(a0)
    80000e62:	cf99                	beqz	a5,80000e80 <strlen+0x2a>
    80000e64:	0505                	addi	a0,a0,1
    80000e66:	87aa                	mv	a5,a0
    80000e68:	86be                	mv	a3,a5
    80000e6a:	0785                	addi	a5,a5,1
    80000e6c:	fff7c703          	lbu	a4,-1(a5)
    80000e70:	ff65                	bnez	a4,80000e68 <strlen+0x12>
    80000e72:	40a6853b          	subw	a0,a3,a0
    80000e76:	2505                	addiw	a0,a0,1
    ;
  return n;
}
    80000e78:	60a2                	ld	ra,8(sp)
    80000e7a:	6402                	ld	s0,0(sp)
    80000e7c:	0141                	addi	sp,sp,16
    80000e7e:	8082                	ret
  for(n = 0; s[n]; n++)
    80000e80:	4501                	li	a0,0
    80000e82:	bfdd                	j	80000e78 <strlen+0x22>

0000000080000e84 <main>:
volatile static int started = 0;

// start() jumps here in supervisor mode on all CPUs.
void
main()
{
    80000e84:	1141                	addi	sp,sp,-16
    80000e86:	e406                	sd	ra,8(sp)
    80000e88:	e022                	sd	s0,0(sp)
    80000e8a:	0800                	addi	s0,sp,16
  if(cpuid() == 0){
    80000e8c:	21d000ef          	jal	800018a8 <cpuid>
    virtio_disk_init(); // emulated hard disk
    userinit();      // first user process
    __sync_synchronize();
    started = 1;
  } else {
    while(started == 0)
    80000e90:	00007717          	auipc	a4,0x7
    80000e94:	bf870713          	addi	a4,a4,-1032 # 80007a88 <started>
  if(cpuid() == 0){
    80000e98:	c51d                	beqz	a0,80000ec6 <main+0x42>
    while(started == 0)
    80000e9a:	431c                	lw	a5,0(a4)
    80000e9c:	2781                	sext.w	a5,a5
    80000e9e:	dff5                	beqz	a5,80000e9a <main+0x16>
      ;
    __sync_synchronize();
    80000ea0:	0330000f          	fence	rw,rw
    printf("hart %d starting\n", cpuid());
    80000ea4:	205000ef          	jal	800018a8 <cpuid>
    80000ea8:	85aa                	mv	a1,a0
    80000eaa:	00006517          	auipc	a0,0x6
    80000eae:	1ee50513          	addi	a0,a0,494 # 80007098 <etext+0x98>
    80000eb2:	e1cff0ef          	jal	800004ce <printf>
    kvminithart();    // turn on paging
    80000eb6:	080000ef          	jal	80000f36 <kvminithart>
    trapinithart();   // install kernel trap vector
    80000eba:	091010ef          	jal	8000274a <trapinithart>
    plicinithart();   // ask PLIC for device interrupts
    80000ebe:	15b040ef          	jal	80005818 <plicinithart>
  }

  scheduler();        
    80000ec2:	6c7000ef          	jal	80001d88 <scheduler>
    consoleinit();
    80000ec6:	d3aff0ef          	jal	80000400 <consoleinit>
    printfinit();
    80000eca:	90fff0ef          	jal	800007d8 <printfinit>
    printf("\n");
    80000ece:	00006517          	auipc	a0,0x6
    80000ed2:	1aa50513          	addi	a0,a0,426 # 80007078 <etext+0x78>
    80000ed6:	df8ff0ef          	jal	800004ce <printf>
    printf("xv6 kernel is booting\n");
    80000eda:	00006517          	auipc	a0,0x6
    80000ede:	1a650513          	addi	a0,a0,422 # 80007080 <etext+0x80>
    80000ee2:	decff0ef          	jal	800004ce <printf>
    printf("\n");
    80000ee6:	00006517          	auipc	a0,0x6
    80000eea:	19250513          	addi	a0,a0,402 # 80007078 <etext+0x78>
    80000eee:	de0ff0ef          	jal	800004ce <printf>
    kinit();         // physical page allocator
    80000ef2:	c05ff0ef          	jal	80000af6 <kinit>
    kvminit();       // create kernel page table
    80000ef6:	2ce000ef          	jal	800011c4 <kvminit>
    kvminithart();   // turn on paging
    80000efa:	03c000ef          	jal	80000f36 <kvminithart>
    procinit();      // process table
    80000efe:	0fb000ef          	jal	800017f8 <procinit>
    trapinit();      // trap vectors
    80000f02:	025010ef          	jal	80002726 <trapinit>
    trapinithart();  // install kernel trap vector
    80000f06:	045010ef          	jal	8000274a <trapinithart>
    plicinit();      // set up interrupt controller
    80000f0a:	0f5040ef          	jal	800057fe <plicinit>
    plicinithart();  // ask PLIC for device interrupts
    80000f0e:	10b040ef          	jal	80005818 <plicinithart>
    binit();         // buffer cache
    80000f12:	074020ef          	jal	80002f86 <binit>
    iinit();         // inode table
    80000f16:	640020ef          	jal	80003556 <iinit>
    fileinit();      // file table
    80000f1a:	40e030ef          	jal	80004328 <fileinit>
    virtio_disk_init(); // emulated hard disk
    80000f1e:	1eb040ef          	jal	80005908 <virtio_disk_init>
    userinit();      // first user process
    80000f22:	48f000ef          	jal	80001bb0 <userinit>
    __sync_synchronize();
    80000f26:	0330000f          	fence	rw,rw
    started = 1;
    80000f2a:	4785                	li	a5,1
    80000f2c:	00007717          	auipc	a4,0x7
    80000f30:	b4f72e23          	sw	a5,-1188(a4) # 80007a88 <started>
    80000f34:	b779                	j	80000ec2 <main+0x3e>

0000000080000f36 <kvminithart>:

// Switch h/w page table register to the kernel's page table,
// and enable paging.
void
kvminithart()
{
    80000f36:	1141                	addi	sp,sp,-16
    80000f38:	e406                	sd	ra,8(sp)
    80000f3a:	e022                	sd	s0,0(sp)
    80000f3c:	0800                	addi	s0,sp,16
// flush the TLB.
static inline void
sfence_vma()
{
  // the zero, zero means flush all TLB entries.
  asm volatile("sfence.vma zero, zero");
    80000f3e:	12000073          	sfence.vma
  // wait for any previous writes to the page table memory to finish.
  sfence_vma();

  w_satp(MAKE_SATP(kernel_pagetable));
    80000f42:	00007797          	auipc	a5,0x7
    80000f46:	b4e7b783          	ld	a5,-1202(a5) # 80007a90 <kernel_pagetable>
    80000f4a:	83b1                	srli	a5,a5,0xc
    80000f4c:	577d                	li	a4,-1
    80000f4e:	177e                	slli	a4,a4,0x3f
    80000f50:	8fd9                	or	a5,a5,a4
  asm volatile("csrw satp, %0" : : "r" (x));
    80000f52:	18079073          	csrw	satp,a5
  asm volatile("sfence.vma zero, zero");
    80000f56:	12000073          	sfence.vma

  // flush stale entries from the TLB.
  sfence_vma();
}
    80000f5a:	60a2                	ld	ra,8(sp)
    80000f5c:	6402                	ld	s0,0(sp)
    80000f5e:	0141                	addi	sp,sp,16
    80000f60:	8082                	ret

0000000080000f62 <walk>:
//   21..29 -- 9 bits of level-1 index.
//   12..20 -- 9 bits of level-0 index.
//    0..11 -- 12 bits of byte offset within the page.
pte_t *
walk(pagetable_t pagetable, uint64 va, int alloc)
{
    80000f62:	7139                	addi	sp,sp,-64
    80000f64:	fc06                	sd	ra,56(sp)
    80000f66:	f822                	sd	s0,48(sp)
    80000f68:	f426                	sd	s1,40(sp)
    80000f6a:	f04a                	sd	s2,32(sp)
    80000f6c:	ec4e                	sd	s3,24(sp)
    80000f6e:	e852                	sd	s4,16(sp)
    80000f70:	e456                	sd	s5,8(sp)
    80000f72:	e05a                	sd	s6,0(sp)
    80000f74:	0080                	addi	s0,sp,64
    80000f76:	84aa                	mv	s1,a0
    80000f78:	89ae                	mv	s3,a1
    80000f7a:	8ab2                	mv	s5,a2
  if(va >= MAXVA)
    80000f7c:	57fd                	li	a5,-1
    80000f7e:	83e9                	srli	a5,a5,0x1a
    80000f80:	4a79                	li	s4,30
    panic("walk");

  for(int level = 2; level > 0; level--) {
    80000f82:	4b31                	li	s6,12
  if(va >= MAXVA)
    80000f84:	04b7e263          	bltu	a5,a1,80000fc8 <walk+0x66>
    pte_t *pte = &pagetable[PX(level, va)];
    80000f88:	0149d933          	srl	s2,s3,s4
    80000f8c:	1ff97913          	andi	s2,s2,511
    80000f90:	090e                	slli	s2,s2,0x3
    80000f92:	9926                	add	s2,s2,s1
    if(*pte & PTE_V) {
    80000f94:	00093483          	ld	s1,0(s2)
    80000f98:	0014f793          	andi	a5,s1,1
    80000f9c:	cf85                	beqz	a5,80000fd4 <walk+0x72>
      pagetable = (pagetable_t)PTE2PA(*pte);
    80000f9e:	80a9                	srli	s1,s1,0xa
    80000fa0:	04b2                	slli	s1,s1,0xc
  for(int level = 2; level > 0; level--) {
    80000fa2:	3a5d                	addiw	s4,s4,-9
    80000fa4:	ff6a12e3          	bne	s4,s6,80000f88 <walk+0x26>
        return 0;
      memset(pagetable, 0, PGSIZE);
      *pte = PA2PTE(pagetable) | PTE_V;
    }
  }
  return &pagetable[PX(0, va)];
    80000fa8:	00c9d513          	srli	a0,s3,0xc
    80000fac:	1ff57513          	andi	a0,a0,511
    80000fb0:	050e                	slli	a0,a0,0x3
    80000fb2:	9526                	add	a0,a0,s1
}
    80000fb4:	70e2                	ld	ra,56(sp)
    80000fb6:	7442                	ld	s0,48(sp)
    80000fb8:	74a2                	ld	s1,40(sp)
    80000fba:	7902                	ld	s2,32(sp)
    80000fbc:	69e2                	ld	s3,24(sp)
    80000fbe:	6a42                	ld	s4,16(sp)
    80000fc0:	6aa2                	ld	s5,8(sp)
    80000fc2:	6b02                	ld	s6,0(sp)
    80000fc4:	6121                	addi	sp,sp,64
    80000fc6:	8082                	ret
    panic("walk");
    80000fc8:	00006517          	auipc	a0,0x6
    80000fcc:	0e850513          	addi	a0,a0,232 # 800070b0 <etext+0xb0>
    80000fd0:	fceff0ef          	jal	8000079e <panic>
      if(!alloc || (pagetable = (pde_t*)kalloc()) == 0)
    80000fd4:	020a8263          	beqz	s5,80000ff8 <walk+0x96>
    80000fd8:	b53ff0ef          	jal	80000b2a <kalloc>
    80000fdc:	84aa                	mv	s1,a0
    80000fde:	d979                	beqz	a0,80000fb4 <walk+0x52>
      memset(pagetable, 0, PGSIZE);
    80000fe0:	6605                	lui	a2,0x1
    80000fe2:	4581                	li	a1,0
    80000fe4:	cebff0ef          	jal	80000cce <memset>
      *pte = PA2PTE(pagetable) | PTE_V;
    80000fe8:	00c4d793          	srli	a5,s1,0xc
    80000fec:	07aa                	slli	a5,a5,0xa
    80000fee:	0017e793          	ori	a5,a5,1
    80000ff2:	00f93023          	sd	a5,0(s2)
    80000ff6:	b775                	j	80000fa2 <walk+0x40>
        return 0;
    80000ff8:	4501                	li	a0,0
    80000ffa:	bf6d                	j	80000fb4 <walk+0x52>

0000000080000ffc <walkaddr>:
walkaddr(pagetable_t pagetable, uint64 va)
{
  pte_t *pte;
  uint64 pa;

  if(va >= MAXVA)
    80000ffc:	57fd                	li	a5,-1
    80000ffe:	83e9                	srli	a5,a5,0x1a
    80001000:	00b7f463          	bgeu	a5,a1,80001008 <walkaddr+0xc>
    return 0;
    80001004:	4501                	li	a0,0
    return 0;
  if((*pte & PTE_U) == 0)
    return 0;
  pa = PTE2PA(*pte);
  return pa;
}
    80001006:	8082                	ret
{
    80001008:	1141                	addi	sp,sp,-16
    8000100a:	e406                	sd	ra,8(sp)
    8000100c:	e022                	sd	s0,0(sp)
    8000100e:	0800                	addi	s0,sp,16
  pte = walk(pagetable, va, 0);
    80001010:	4601                	li	a2,0
    80001012:	f51ff0ef          	jal	80000f62 <walk>
  if(pte == 0)
    80001016:	c105                	beqz	a0,80001036 <walkaddr+0x3a>
  if((*pte & PTE_V) == 0)
    80001018:	611c                	ld	a5,0(a0)
  if((*pte & PTE_U) == 0)
    8000101a:	0117f693          	andi	a3,a5,17
    8000101e:	4745                	li	a4,17
    return 0;
    80001020:	4501                	li	a0,0
  if((*pte & PTE_U) == 0)
    80001022:	00e68663          	beq	a3,a4,8000102e <walkaddr+0x32>
}
    80001026:	60a2                	ld	ra,8(sp)
    80001028:	6402                	ld	s0,0(sp)
    8000102a:	0141                	addi	sp,sp,16
    8000102c:	8082                	ret
  pa = PTE2PA(*pte);
    8000102e:	83a9                	srli	a5,a5,0xa
    80001030:	00c79513          	slli	a0,a5,0xc
  return pa;
    80001034:	bfcd                	j	80001026 <walkaddr+0x2a>
    return 0;
    80001036:	4501                	li	a0,0
    80001038:	b7fd                	j	80001026 <walkaddr+0x2a>

000000008000103a <mappages>:
// va and size MUST be page-aligned.
// Returns 0 on success, -1 if walk() couldn't
// allocate a needed page-table page.
int
mappages(pagetable_t pagetable, uint64 va, uint64 size, uint64 pa, int perm)
{
    8000103a:	715d                	addi	sp,sp,-80
    8000103c:	e486                	sd	ra,72(sp)
    8000103e:	e0a2                	sd	s0,64(sp)
    80001040:	fc26                	sd	s1,56(sp)
    80001042:	f84a                	sd	s2,48(sp)
    80001044:	f44e                	sd	s3,40(sp)
    80001046:	f052                	sd	s4,32(sp)
    80001048:	ec56                	sd	s5,24(sp)
    8000104a:	e85a                	sd	s6,16(sp)
    8000104c:	e45e                	sd	s7,8(sp)
    8000104e:	e062                	sd	s8,0(sp)
    80001050:	0880                	addi	s0,sp,80
  uint64 a, last;
  pte_t *pte;

  if((va % PGSIZE) != 0)
    80001052:	03459793          	slli	a5,a1,0x34
    80001056:	e7b1                	bnez	a5,800010a2 <mappages+0x68>
    80001058:	8aaa                	mv	s5,a0
    8000105a:	8b3a                	mv	s6,a4
    panic("mappages: va not aligned");

  if((size % PGSIZE) != 0)
    8000105c:	03461793          	slli	a5,a2,0x34
    80001060:	e7b9                	bnez	a5,800010ae <mappages+0x74>
    panic("mappages: size not aligned");

  if(size == 0)
    80001062:	ce21                	beqz	a2,800010ba <mappages+0x80>
    panic("mappages: size");
  
  a = va;
  last = va + size - PGSIZE;
    80001064:	77fd                	lui	a5,0xfffff
    80001066:	963e                	add	a2,a2,a5
    80001068:	00b609b3          	add	s3,a2,a1
  a = va;
    8000106c:	892e                	mv	s2,a1
    8000106e:	40b68a33          	sub	s4,a3,a1
  for(;;){
    if((pte = walk(pagetable, a, 1)) == 0)
    80001072:	4b85                	li	s7,1
    if(*pte & PTE_V)
      panic("mappages: remap");
    *pte = PA2PTE(pa) | perm | PTE_V;
    if(a == last)
      break;
    a += PGSIZE;
    80001074:	6c05                	lui	s8,0x1
    80001076:	014904b3          	add	s1,s2,s4
    if((pte = walk(pagetable, a, 1)) == 0)
    8000107a:	865e                	mv	a2,s7
    8000107c:	85ca                	mv	a1,s2
    8000107e:	8556                	mv	a0,s5
    80001080:	ee3ff0ef          	jal	80000f62 <walk>
    80001084:	c539                	beqz	a0,800010d2 <mappages+0x98>
    if(*pte & PTE_V)
    80001086:	611c                	ld	a5,0(a0)
    80001088:	8b85                	andi	a5,a5,1
    8000108a:	ef95                	bnez	a5,800010c6 <mappages+0x8c>
    *pte = PA2PTE(pa) | perm | PTE_V;
    8000108c:	80b1                	srli	s1,s1,0xc
    8000108e:	04aa                	slli	s1,s1,0xa
    80001090:	0164e4b3          	or	s1,s1,s6
    80001094:	0014e493          	ori	s1,s1,1
    80001098:	e104                	sd	s1,0(a0)
    if(a == last)
    8000109a:	05390963          	beq	s2,s3,800010ec <mappages+0xb2>
    a += PGSIZE;
    8000109e:	9962                	add	s2,s2,s8
    if((pte = walk(pagetable, a, 1)) == 0)
    800010a0:	bfd9                	j	80001076 <mappages+0x3c>
    panic("mappages: va not aligned");
    800010a2:	00006517          	auipc	a0,0x6
    800010a6:	01650513          	addi	a0,a0,22 # 800070b8 <etext+0xb8>
    800010aa:	ef4ff0ef          	jal	8000079e <panic>
    panic("mappages: size not aligned");
    800010ae:	00006517          	auipc	a0,0x6
    800010b2:	02a50513          	addi	a0,a0,42 # 800070d8 <etext+0xd8>
    800010b6:	ee8ff0ef          	jal	8000079e <panic>
    panic("mappages: size");
    800010ba:	00006517          	auipc	a0,0x6
    800010be:	03e50513          	addi	a0,a0,62 # 800070f8 <etext+0xf8>
    800010c2:	edcff0ef          	jal	8000079e <panic>
      panic("mappages: remap");
    800010c6:	00006517          	auipc	a0,0x6
    800010ca:	04250513          	addi	a0,a0,66 # 80007108 <etext+0x108>
    800010ce:	ed0ff0ef          	jal	8000079e <panic>
      return -1;
    800010d2:	557d                	li	a0,-1
    pa += PGSIZE;
  }
  return 0;
}
    800010d4:	60a6                	ld	ra,72(sp)
    800010d6:	6406                	ld	s0,64(sp)
    800010d8:	74e2                	ld	s1,56(sp)
    800010da:	7942                	ld	s2,48(sp)
    800010dc:	79a2                	ld	s3,40(sp)
    800010de:	7a02                	ld	s4,32(sp)
    800010e0:	6ae2                	ld	s5,24(sp)
    800010e2:	6b42                	ld	s6,16(sp)
    800010e4:	6ba2                	ld	s7,8(sp)
    800010e6:	6c02                	ld	s8,0(sp)
    800010e8:	6161                	addi	sp,sp,80
    800010ea:	8082                	ret
  return 0;
    800010ec:	4501                	li	a0,0
    800010ee:	b7dd                	j	800010d4 <mappages+0x9a>

00000000800010f0 <kvmmap>:
{
    800010f0:	1141                	addi	sp,sp,-16
    800010f2:	e406                	sd	ra,8(sp)
    800010f4:	e022                	sd	s0,0(sp)
    800010f6:	0800                	addi	s0,sp,16
    800010f8:	87b6                	mv	a5,a3
  if(mappages(kpgtbl, va, sz, pa, perm) != 0)
    800010fa:	86b2                	mv	a3,a2
    800010fc:	863e                	mv	a2,a5
    800010fe:	f3dff0ef          	jal	8000103a <mappages>
    80001102:	e509                	bnez	a0,8000110c <kvmmap+0x1c>
}
    80001104:	60a2                	ld	ra,8(sp)
    80001106:	6402                	ld	s0,0(sp)
    80001108:	0141                	addi	sp,sp,16
    8000110a:	8082                	ret
    panic("kvmmap");
    8000110c:	00006517          	auipc	a0,0x6
    80001110:	00c50513          	addi	a0,a0,12 # 80007118 <etext+0x118>
    80001114:	e8aff0ef          	jal	8000079e <panic>

0000000080001118 <kvmmake>:
{
    80001118:	1101                	addi	sp,sp,-32
    8000111a:	ec06                	sd	ra,24(sp)
    8000111c:	e822                	sd	s0,16(sp)
    8000111e:	e426                	sd	s1,8(sp)
    80001120:	e04a                	sd	s2,0(sp)
    80001122:	1000                	addi	s0,sp,32
  kpgtbl = (pagetable_t) kalloc();
    80001124:	a07ff0ef          	jal	80000b2a <kalloc>
    80001128:	84aa                	mv	s1,a0
  memset(kpgtbl, 0, PGSIZE);
    8000112a:	6605                	lui	a2,0x1
    8000112c:	4581                	li	a1,0
    8000112e:	ba1ff0ef          	jal	80000cce <memset>
  kvmmap(kpgtbl, UART0, UART0, PGSIZE, PTE_R | PTE_W);
    80001132:	4719                	li	a4,6
    80001134:	6685                	lui	a3,0x1
    80001136:	10000637          	lui	a2,0x10000
    8000113a:	85b2                	mv	a1,a2
    8000113c:	8526                	mv	a0,s1
    8000113e:	fb3ff0ef          	jal	800010f0 <kvmmap>
  kvmmap(kpgtbl, VIRTIO0, VIRTIO0, PGSIZE, PTE_R | PTE_W);
    80001142:	4719                	li	a4,6
    80001144:	6685                	lui	a3,0x1
    80001146:	10001637          	lui	a2,0x10001
    8000114a:	85b2                	mv	a1,a2
    8000114c:	8526                	mv	a0,s1
    8000114e:	fa3ff0ef          	jal	800010f0 <kvmmap>
  kvmmap(kpgtbl, PLIC, PLIC, 0x4000000, PTE_R | PTE_W);
    80001152:	4719                	li	a4,6
    80001154:	040006b7          	lui	a3,0x4000
    80001158:	0c000637          	lui	a2,0xc000
    8000115c:	85b2                	mv	a1,a2
    8000115e:	8526                	mv	a0,s1
    80001160:	f91ff0ef          	jal	800010f0 <kvmmap>
  kvmmap(kpgtbl, KERNBASE, KERNBASE, (uint64)etext-KERNBASE, PTE_R | PTE_X);
    80001164:	00006917          	auipc	s2,0x6
    80001168:	e9c90913          	addi	s2,s2,-356 # 80007000 <etext>
    8000116c:	4729                	li	a4,10
    8000116e:	80006697          	auipc	a3,0x80006
    80001172:	e9268693          	addi	a3,a3,-366 # 7000 <_entry-0x7fff9000>
    80001176:	4605                	li	a2,1
    80001178:	067e                	slli	a2,a2,0x1f
    8000117a:	85b2                	mv	a1,a2
    8000117c:	8526                	mv	a0,s1
    8000117e:	f73ff0ef          	jal	800010f0 <kvmmap>
  kvmmap(kpgtbl, (uint64)etext, (uint64)etext, PHYSTOP-(uint64)etext, PTE_R | PTE_W);
    80001182:	4719                	li	a4,6
    80001184:	46c5                	li	a3,17
    80001186:	06ee                	slli	a3,a3,0x1b
    80001188:	412686b3          	sub	a3,a3,s2
    8000118c:	864a                	mv	a2,s2
    8000118e:	85ca                	mv	a1,s2
    80001190:	8526                	mv	a0,s1
    80001192:	f5fff0ef          	jal	800010f0 <kvmmap>
  kvmmap(kpgtbl, TRAMPOLINE, (uint64)trampoline, PGSIZE, PTE_R | PTE_X);
    80001196:	4729                	li	a4,10
    80001198:	6685                	lui	a3,0x1
    8000119a:	00005617          	auipc	a2,0x5
    8000119e:	e6660613          	addi	a2,a2,-410 # 80006000 <_trampoline>
    800011a2:	040005b7          	lui	a1,0x4000
    800011a6:	15fd                	addi	a1,a1,-1 # 3ffffff <_entry-0x7c000001>
    800011a8:	05b2                	slli	a1,a1,0xc
    800011aa:	8526                	mv	a0,s1
    800011ac:	f45ff0ef          	jal	800010f0 <kvmmap>
  proc_mapstacks(kpgtbl);
    800011b0:	8526                	mv	a0,s1
    800011b2:	5a8000ef          	jal	8000175a <proc_mapstacks>
}
    800011b6:	8526                	mv	a0,s1
    800011b8:	60e2                	ld	ra,24(sp)
    800011ba:	6442                	ld	s0,16(sp)
    800011bc:	64a2                	ld	s1,8(sp)
    800011be:	6902                	ld	s2,0(sp)
    800011c0:	6105                	addi	sp,sp,32
    800011c2:	8082                	ret

00000000800011c4 <kvminit>:
{
    800011c4:	1141                	addi	sp,sp,-16
    800011c6:	e406                	sd	ra,8(sp)
    800011c8:	e022                	sd	s0,0(sp)
    800011ca:	0800                	addi	s0,sp,16
  kernel_pagetable = kvmmake();
    800011cc:	f4dff0ef          	jal	80001118 <kvmmake>
    800011d0:	00007797          	auipc	a5,0x7
    800011d4:	8ca7b023          	sd	a0,-1856(a5) # 80007a90 <kernel_pagetable>
}
    800011d8:	60a2                	ld	ra,8(sp)
    800011da:	6402                	ld	s0,0(sp)
    800011dc:	0141                	addi	sp,sp,16
    800011de:	8082                	ret

00000000800011e0 <uvmunmap>:
// Remove npages of mappings starting from va. va must be
// page-aligned. The mappings must exist.
// Optionally free the physical memory.
void
uvmunmap(pagetable_t pagetable, uint64 va, uint64 npages, int do_free)
{
    800011e0:	715d                	addi	sp,sp,-80
    800011e2:	e486                	sd	ra,72(sp)
    800011e4:	e0a2                	sd	s0,64(sp)
    800011e6:	0880                	addi	s0,sp,80
  uint64 a;
  pte_t *pte;

  if((va % PGSIZE) != 0)
    800011e8:	03459793          	slli	a5,a1,0x34
    800011ec:	e39d                	bnez	a5,80001212 <uvmunmap+0x32>
    800011ee:	f84a                	sd	s2,48(sp)
    800011f0:	f44e                	sd	s3,40(sp)
    800011f2:	f052                	sd	s4,32(sp)
    800011f4:	ec56                	sd	s5,24(sp)
    800011f6:	e85a                	sd	s6,16(sp)
    800011f8:	e45e                	sd	s7,8(sp)
    800011fa:	8a2a                	mv	s4,a0
    800011fc:	892e                	mv	s2,a1
    800011fe:	8ab6                	mv	s5,a3
    panic("uvmunmap: not aligned");

  for(a = va; a < va + npages*PGSIZE; a += PGSIZE){
    80001200:	0632                	slli	a2,a2,0xc
    80001202:	00b609b3          	add	s3,a2,a1
    if((pte = walk(pagetable, a, 0)) == 0)
      panic("uvmunmap: walk");
    if((*pte & PTE_V) == 0)
      panic("uvmunmap: not mapped");
    if(PTE_FLAGS(*pte) == PTE_V)
    80001206:	4b85                	li	s7,1
  for(a = va; a < va + npages*PGSIZE; a += PGSIZE){
    80001208:	6b05                	lui	s6,0x1
    8000120a:	0735ff63          	bgeu	a1,s3,80001288 <uvmunmap+0xa8>
    8000120e:	fc26                	sd	s1,56(sp)
    80001210:	a0a9                	j	8000125a <uvmunmap+0x7a>
    80001212:	fc26                	sd	s1,56(sp)
    80001214:	f84a                	sd	s2,48(sp)
    80001216:	f44e                	sd	s3,40(sp)
    80001218:	f052                	sd	s4,32(sp)
    8000121a:	ec56                	sd	s5,24(sp)
    8000121c:	e85a                	sd	s6,16(sp)
    8000121e:	e45e                	sd	s7,8(sp)
    panic("uvmunmap: not aligned");
    80001220:	00006517          	auipc	a0,0x6
    80001224:	f0050513          	addi	a0,a0,-256 # 80007120 <etext+0x120>
    80001228:	d76ff0ef          	jal	8000079e <panic>
      panic("uvmunmap: walk");
    8000122c:	00006517          	auipc	a0,0x6
    80001230:	f0c50513          	addi	a0,a0,-244 # 80007138 <etext+0x138>
    80001234:	d6aff0ef          	jal	8000079e <panic>
      panic("uvmunmap: not mapped");
    80001238:	00006517          	auipc	a0,0x6
    8000123c:	f1050513          	addi	a0,a0,-240 # 80007148 <etext+0x148>
    80001240:	d5eff0ef          	jal	8000079e <panic>
      panic("uvmunmap: not a leaf");
    80001244:	00006517          	auipc	a0,0x6
    80001248:	f1c50513          	addi	a0,a0,-228 # 80007160 <etext+0x160>
    8000124c:	d52ff0ef          	jal	8000079e <panic>
    if(do_free){
      uint64 pa = PTE2PA(*pte);
      kfree((void*)pa);
    }
    *pte = 0;
    80001250:	0004b023          	sd	zero,0(s1)
  for(a = va; a < va + npages*PGSIZE; a += PGSIZE){
    80001254:	995a                	add	s2,s2,s6
    80001256:	03397863          	bgeu	s2,s3,80001286 <uvmunmap+0xa6>
    if((pte = walk(pagetable, a, 0)) == 0)
    8000125a:	4601                	li	a2,0
    8000125c:	85ca                	mv	a1,s2
    8000125e:	8552                	mv	a0,s4
    80001260:	d03ff0ef          	jal	80000f62 <walk>
    80001264:	84aa                	mv	s1,a0
    80001266:	d179                	beqz	a0,8000122c <uvmunmap+0x4c>
    if((*pte & PTE_V) == 0)
    80001268:	6108                	ld	a0,0(a0)
    8000126a:	00157793          	andi	a5,a0,1
    8000126e:	d7e9                	beqz	a5,80001238 <uvmunmap+0x58>
    if(PTE_FLAGS(*pte) == PTE_V)
    80001270:	3ff57793          	andi	a5,a0,1023
    80001274:	fd7788e3          	beq	a5,s7,80001244 <uvmunmap+0x64>
    if(do_free){
    80001278:	fc0a8ce3          	beqz	s5,80001250 <uvmunmap+0x70>
      uint64 pa = PTE2PA(*pte);
    8000127c:	8129                	srli	a0,a0,0xa
      kfree((void*)pa);
    8000127e:	0532                	slli	a0,a0,0xc
    80001280:	fc8ff0ef          	jal	80000a48 <kfree>
    80001284:	b7f1                	j	80001250 <uvmunmap+0x70>
    80001286:	74e2                	ld	s1,56(sp)
    80001288:	7942                	ld	s2,48(sp)
    8000128a:	79a2                	ld	s3,40(sp)
    8000128c:	7a02                	ld	s4,32(sp)
    8000128e:	6ae2                	ld	s5,24(sp)
    80001290:	6b42                	ld	s6,16(sp)
    80001292:	6ba2                	ld	s7,8(sp)
  }
}
    80001294:	60a6                	ld	ra,72(sp)
    80001296:	6406                	ld	s0,64(sp)
    80001298:	6161                	addi	sp,sp,80
    8000129a:	8082                	ret

000000008000129c <uvmcreate>:

// create an empty user page table.
// returns 0 if out of memory.
pagetable_t
uvmcreate()
{
    8000129c:	1101                	addi	sp,sp,-32
    8000129e:	ec06                	sd	ra,24(sp)
    800012a0:	e822                	sd	s0,16(sp)
    800012a2:	e426                	sd	s1,8(sp)
    800012a4:	1000                	addi	s0,sp,32
  pagetable_t pagetable;
  pagetable = (pagetable_t) kalloc();
    800012a6:	885ff0ef          	jal	80000b2a <kalloc>
    800012aa:	84aa                	mv	s1,a0
  if(pagetable == 0)
    800012ac:	c509                	beqz	a0,800012b6 <uvmcreate+0x1a>
    return 0;
  memset(pagetable, 0, PGSIZE);
    800012ae:	6605                	lui	a2,0x1
    800012b0:	4581                	li	a1,0
    800012b2:	a1dff0ef          	jal	80000cce <memset>
  return pagetable;
}
    800012b6:	8526                	mv	a0,s1
    800012b8:	60e2                	ld	ra,24(sp)
    800012ba:	6442                	ld	s0,16(sp)
    800012bc:	64a2                	ld	s1,8(sp)
    800012be:	6105                	addi	sp,sp,32
    800012c0:	8082                	ret

00000000800012c2 <uvmfirst>:
// Load the user initcode into address 0 of pagetable,
// for the very first process.
// sz must be less than a page.
void
uvmfirst(pagetable_t pagetable, uchar *src, uint sz)
{
    800012c2:	7179                	addi	sp,sp,-48
    800012c4:	f406                	sd	ra,40(sp)
    800012c6:	f022                	sd	s0,32(sp)
    800012c8:	ec26                	sd	s1,24(sp)
    800012ca:	e84a                	sd	s2,16(sp)
    800012cc:	e44e                	sd	s3,8(sp)
    800012ce:	e052                	sd	s4,0(sp)
    800012d0:	1800                	addi	s0,sp,48
  char *mem;

  if(sz >= PGSIZE)
    800012d2:	6785                	lui	a5,0x1
    800012d4:	04f67063          	bgeu	a2,a5,80001314 <uvmfirst+0x52>
    800012d8:	8a2a                	mv	s4,a0
    800012da:	89ae                	mv	s3,a1
    800012dc:	84b2                	mv	s1,a2
    panic("uvmfirst: more than a page");
  mem = kalloc();
    800012de:	84dff0ef          	jal	80000b2a <kalloc>
    800012e2:	892a                	mv	s2,a0
  memset(mem, 0, PGSIZE);
    800012e4:	6605                	lui	a2,0x1
    800012e6:	4581                	li	a1,0
    800012e8:	9e7ff0ef          	jal	80000cce <memset>
  mappages(pagetable, 0, PGSIZE, (uint64)mem, PTE_W|PTE_R|PTE_X|PTE_U);
    800012ec:	4779                	li	a4,30
    800012ee:	86ca                	mv	a3,s2
    800012f0:	6605                	lui	a2,0x1
    800012f2:	4581                	li	a1,0
    800012f4:	8552                	mv	a0,s4
    800012f6:	d45ff0ef          	jal	8000103a <mappages>
  memmove(mem, src, sz);
    800012fa:	8626                	mv	a2,s1
    800012fc:	85ce                	mv	a1,s3
    800012fe:	854a                	mv	a0,s2
    80001300:	a33ff0ef          	jal	80000d32 <memmove>
}
    80001304:	70a2                	ld	ra,40(sp)
    80001306:	7402                	ld	s0,32(sp)
    80001308:	64e2                	ld	s1,24(sp)
    8000130a:	6942                	ld	s2,16(sp)
    8000130c:	69a2                	ld	s3,8(sp)
    8000130e:	6a02                	ld	s4,0(sp)
    80001310:	6145                	addi	sp,sp,48
    80001312:	8082                	ret
    panic("uvmfirst: more than a page");
    80001314:	00006517          	auipc	a0,0x6
    80001318:	e6450513          	addi	a0,a0,-412 # 80007178 <etext+0x178>
    8000131c:	c82ff0ef          	jal	8000079e <panic>

0000000080001320 <uvmdealloc>:
// newsz.  oldsz and newsz need not be page-aligned, nor does newsz
// need to be less than oldsz.  oldsz can be larger than the actual
// process size.  Returns the new process size.
uint64
uvmdealloc(pagetable_t pagetable, uint64 oldsz, uint64 newsz)
{
    80001320:	1101                	addi	sp,sp,-32
    80001322:	ec06                	sd	ra,24(sp)
    80001324:	e822                	sd	s0,16(sp)
    80001326:	e426                	sd	s1,8(sp)
    80001328:	1000                	addi	s0,sp,32
  if(newsz >= oldsz)
    return oldsz;
    8000132a:	84ae                	mv	s1,a1
  if(newsz >= oldsz)
    8000132c:	00b67d63          	bgeu	a2,a1,80001346 <uvmdealloc+0x26>
    80001330:	84b2                	mv	s1,a2

  if(PGROUNDUP(newsz) < PGROUNDUP(oldsz)){
    80001332:	6785                	lui	a5,0x1
    80001334:	17fd                	addi	a5,a5,-1 # fff <_entry-0x7ffff001>
    80001336:	00f60733          	add	a4,a2,a5
    8000133a:	76fd                	lui	a3,0xfffff
    8000133c:	8f75                	and	a4,a4,a3
    8000133e:	97ae                	add	a5,a5,a1
    80001340:	8ff5                	and	a5,a5,a3
    80001342:	00f76863          	bltu	a4,a5,80001352 <uvmdealloc+0x32>
    int npages = (PGROUNDUP(oldsz) - PGROUNDUP(newsz)) / PGSIZE;
    uvmunmap(pagetable, PGROUNDUP(newsz), npages, 1);
  }

  return newsz;
}
    80001346:	8526                	mv	a0,s1
    80001348:	60e2                	ld	ra,24(sp)
    8000134a:	6442                	ld	s0,16(sp)
    8000134c:	64a2                	ld	s1,8(sp)
    8000134e:	6105                	addi	sp,sp,32
    80001350:	8082                	ret
    int npages = (PGROUNDUP(oldsz) - PGROUNDUP(newsz)) / PGSIZE;
    80001352:	8f99                	sub	a5,a5,a4
    80001354:	83b1                	srli	a5,a5,0xc
    uvmunmap(pagetable, PGROUNDUP(newsz), npages, 1);
    80001356:	4685                	li	a3,1
    80001358:	0007861b          	sext.w	a2,a5
    8000135c:	85ba                	mv	a1,a4
    8000135e:	e83ff0ef          	jal	800011e0 <uvmunmap>
    80001362:	b7d5                	j	80001346 <uvmdealloc+0x26>

0000000080001364 <uvmalloc>:
  if(newsz < oldsz)
    80001364:	0ab66363          	bltu	a2,a1,8000140a <uvmalloc+0xa6>
{
    80001368:	715d                	addi	sp,sp,-80
    8000136a:	e486                	sd	ra,72(sp)
    8000136c:	e0a2                	sd	s0,64(sp)
    8000136e:	f052                	sd	s4,32(sp)
    80001370:	ec56                	sd	s5,24(sp)
    80001372:	e85a                	sd	s6,16(sp)
    80001374:	0880                	addi	s0,sp,80
    80001376:	8b2a                	mv	s6,a0
    80001378:	8ab2                	mv	s5,a2
  oldsz = PGROUNDUP(oldsz);
    8000137a:	6785                	lui	a5,0x1
    8000137c:	17fd                	addi	a5,a5,-1 # fff <_entry-0x7ffff001>
    8000137e:	95be                	add	a1,a1,a5
    80001380:	77fd                	lui	a5,0xfffff
    80001382:	00f5fa33          	and	s4,a1,a5
  for(a = oldsz; a < newsz; a += PGSIZE){
    80001386:	08ca7463          	bgeu	s4,a2,8000140e <uvmalloc+0xaa>
    8000138a:	fc26                	sd	s1,56(sp)
    8000138c:	f84a                	sd	s2,48(sp)
    8000138e:	f44e                	sd	s3,40(sp)
    80001390:	e45e                	sd	s7,8(sp)
    80001392:	8952                	mv	s2,s4
    memset(mem, 0, PGSIZE);
    80001394:	6985                	lui	s3,0x1
    if(mappages(pagetable, a, PGSIZE, (uint64)mem, PTE_R|PTE_U|xperm) != 0){
    80001396:	0126eb93          	ori	s7,a3,18
    mem = kalloc();
    8000139a:	f90ff0ef          	jal	80000b2a <kalloc>
    8000139e:	84aa                	mv	s1,a0
    if(mem == 0){
    800013a0:	c515                	beqz	a0,800013cc <uvmalloc+0x68>
    memset(mem, 0, PGSIZE);
    800013a2:	864e                	mv	a2,s3
    800013a4:	4581                	li	a1,0
    800013a6:	929ff0ef          	jal	80000cce <memset>
    if(mappages(pagetable, a, PGSIZE, (uint64)mem, PTE_R|PTE_U|xperm) != 0){
    800013aa:	875e                	mv	a4,s7
    800013ac:	86a6                	mv	a3,s1
    800013ae:	864e                	mv	a2,s3
    800013b0:	85ca                	mv	a1,s2
    800013b2:	855a                	mv	a0,s6
    800013b4:	c87ff0ef          	jal	8000103a <mappages>
    800013b8:	e91d                	bnez	a0,800013ee <uvmalloc+0x8a>
  for(a = oldsz; a < newsz; a += PGSIZE){
    800013ba:	994e                	add	s2,s2,s3
    800013bc:	fd596fe3          	bltu	s2,s5,8000139a <uvmalloc+0x36>
  return newsz;
    800013c0:	8556                	mv	a0,s5
    800013c2:	74e2                	ld	s1,56(sp)
    800013c4:	7942                	ld	s2,48(sp)
    800013c6:	79a2                	ld	s3,40(sp)
    800013c8:	6ba2                	ld	s7,8(sp)
    800013ca:	a819                	j	800013e0 <uvmalloc+0x7c>
      uvmdealloc(pagetable, a, oldsz);
    800013cc:	8652                	mv	a2,s4
    800013ce:	85ca                	mv	a1,s2
    800013d0:	855a                	mv	a0,s6
    800013d2:	f4fff0ef          	jal	80001320 <uvmdealloc>
      return 0;
    800013d6:	4501                	li	a0,0
    800013d8:	74e2                	ld	s1,56(sp)
    800013da:	7942                	ld	s2,48(sp)
    800013dc:	79a2                	ld	s3,40(sp)
    800013de:	6ba2                	ld	s7,8(sp)
}
    800013e0:	60a6                	ld	ra,72(sp)
    800013e2:	6406                	ld	s0,64(sp)
    800013e4:	7a02                	ld	s4,32(sp)
    800013e6:	6ae2                	ld	s5,24(sp)
    800013e8:	6b42                	ld	s6,16(sp)
    800013ea:	6161                	addi	sp,sp,80
    800013ec:	8082                	ret
      kfree(mem);
    800013ee:	8526                	mv	a0,s1
    800013f0:	e58ff0ef          	jal	80000a48 <kfree>
      uvmdealloc(pagetable, a, oldsz);
    800013f4:	8652                	mv	a2,s4
    800013f6:	85ca                	mv	a1,s2
    800013f8:	855a                	mv	a0,s6
    800013fa:	f27ff0ef          	jal	80001320 <uvmdealloc>
      return 0;
    800013fe:	4501                	li	a0,0
    80001400:	74e2                	ld	s1,56(sp)
    80001402:	7942                	ld	s2,48(sp)
    80001404:	79a2                	ld	s3,40(sp)
    80001406:	6ba2                	ld	s7,8(sp)
    80001408:	bfe1                	j	800013e0 <uvmalloc+0x7c>
    return oldsz;
    8000140a:	852e                	mv	a0,a1
}
    8000140c:	8082                	ret
  return newsz;
    8000140e:	8532                	mv	a0,a2
    80001410:	bfc1                	j	800013e0 <uvmalloc+0x7c>

0000000080001412 <freewalk>:

// Recursively free page-table pages.
// All leaf mappings must already have been removed.
void
freewalk(pagetable_t pagetable)
{
    80001412:	7179                	addi	sp,sp,-48
    80001414:	f406                	sd	ra,40(sp)
    80001416:	f022                	sd	s0,32(sp)
    80001418:	ec26                	sd	s1,24(sp)
    8000141a:	e84a                	sd	s2,16(sp)
    8000141c:	e44e                	sd	s3,8(sp)
    8000141e:	e052                	sd	s4,0(sp)
    80001420:	1800                	addi	s0,sp,48
    80001422:	8a2a                	mv	s4,a0
  // there are 2^9 = 512 PTEs in a page table.
  for(int i = 0; i < 512; i++){
    80001424:	84aa                	mv	s1,a0
    80001426:	6905                	lui	s2,0x1
    80001428:	992a                	add	s2,s2,a0
    pte_t pte = pagetable[i];
    if((pte & PTE_V) && (pte & (PTE_R|PTE_W|PTE_X)) == 0){
    8000142a:	4985                	li	s3,1
    8000142c:	a819                	j	80001442 <freewalk+0x30>
      // this PTE points to a lower-level page table.
      uint64 child = PTE2PA(pte);
    8000142e:	83a9                	srli	a5,a5,0xa
      freewalk((pagetable_t)child);
    80001430:	00c79513          	slli	a0,a5,0xc
    80001434:	fdfff0ef          	jal	80001412 <freewalk>
      pagetable[i] = 0;
    80001438:	0004b023          	sd	zero,0(s1)
  for(int i = 0; i < 512; i++){
    8000143c:	04a1                	addi	s1,s1,8
    8000143e:	01248f63          	beq	s1,s2,8000145c <freewalk+0x4a>
    pte_t pte = pagetable[i];
    80001442:	609c                	ld	a5,0(s1)
    if((pte & PTE_V) && (pte & (PTE_R|PTE_W|PTE_X)) == 0){
    80001444:	00f7f713          	andi	a4,a5,15
    80001448:	ff3703e3          	beq	a4,s3,8000142e <freewalk+0x1c>
    } else if(pte & PTE_V){
    8000144c:	8b85                	andi	a5,a5,1
    8000144e:	d7fd                	beqz	a5,8000143c <freewalk+0x2a>
      panic("freewalk: leaf");
    80001450:	00006517          	auipc	a0,0x6
    80001454:	d4850513          	addi	a0,a0,-696 # 80007198 <etext+0x198>
    80001458:	b46ff0ef          	jal	8000079e <panic>
    }
  }
  kfree((void*)pagetable);
    8000145c:	8552                	mv	a0,s4
    8000145e:	deaff0ef          	jal	80000a48 <kfree>
}
    80001462:	70a2                	ld	ra,40(sp)
    80001464:	7402                	ld	s0,32(sp)
    80001466:	64e2                	ld	s1,24(sp)
    80001468:	6942                	ld	s2,16(sp)
    8000146a:	69a2                	ld	s3,8(sp)
    8000146c:	6a02                	ld	s4,0(sp)
    8000146e:	6145                	addi	sp,sp,48
    80001470:	8082                	ret

0000000080001472 <uvmfree>:

// Free user memory pages,
// then free page-table pages.
void
uvmfree(pagetable_t pagetable, uint64 sz)
{
    80001472:	1101                	addi	sp,sp,-32
    80001474:	ec06                	sd	ra,24(sp)
    80001476:	e822                	sd	s0,16(sp)
    80001478:	e426                	sd	s1,8(sp)
    8000147a:	1000                	addi	s0,sp,32
    8000147c:	84aa                	mv	s1,a0
  if(sz > 0)
    8000147e:	e989                	bnez	a1,80001490 <uvmfree+0x1e>
    uvmunmap(pagetable, 0, PGROUNDUP(sz)/PGSIZE, 1);
  freewalk(pagetable);
    80001480:	8526                	mv	a0,s1
    80001482:	f91ff0ef          	jal	80001412 <freewalk>
}
    80001486:	60e2                	ld	ra,24(sp)
    80001488:	6442                	ld	s0,16(sp)
    8000148a:	64a2                	ld	s1,8(sp)
    8000148c:	6105                	addi	sp,sp,32
    8000148e:	8082                	ret
    uvmunmap(pagetable, 0, PGROUNDUP(sz)/PGSIZE, 1);
    80001490:	6785                	lui	a5,0x1
    80001492:	17fd                	addi	a5,a5,-1 # fff <_entry-0x7ffff001>
    80001494:	95be                	add	a1,a1,a5
    80001496:	4685                	li	a3,1
    80001498:	00c5d613          	srli	a2,a1,0xc
    8000149c:	4581                	li	a1,0
    8000149e:	d43ff0ef          	jal	800011e0 <uvmunmap>
    800014a2:	bff9                	j	80001480 <uvmfree+0xe>

00000000800014a4 <uvmcopy>:
  pte_t *pte;
  uint64 pa, i;
  uint flags;
  char *mem;

  for(i = 0; i < sz; i += PGSIZE){
    800014a4:	ca4d                	beqz	a2,80001556 <uvmcopy+0xb2>
{
    800014a6:	715d                	addi	sp,sp,-80
    800014a8:	e486                	sd	ra,72(sp)
    800014aa:	e0a2                	sd	s0,64(sp)
    800014ac:	fc26                	sd	s1,56(sp)
    800014ae:	f84a                	sd	s2,48(sp)
    800014b0:	f44e                	sd	s3,40(sp)
    800014b2:	f052                	sd	s4,32(sp)
    800014b4:	ec56                	sd	s5,24(sp)
    800014b6:	e85a                	sd	s6,16(sp)
    800014b8:	e45e                	sd	s7,8(sp)
    800014ba:	e062                	sd	s8,0(sp)
    800014bc:	0880                	addi	s0,sp,80
    800014be:	8baa                	mv	s7,a0
    800014c0:	8b2e                	mv	s6,a1
    800014c2:	8ab2                	mv	s5,a2
  for(i = 0; i < sz; i += PGSIZE){
    800014c4:	4981                	li	s3,0
      panic("uvmcopy: page not present");
    pa = PTE2PA(*pte);
    flags = PTE_FLAGS(*pte);
    if((mem = kalloc()) == 0)
      goto err;
    memmove(mem, (char*)pa, PGSIZE);
    800014c6:	6a05                	lui	s4,0x1
    if((pte = walk(old, i, 0)) == 0)
    800014c8:	4601                	li	a2,0
    800014ca:	85ce                	mv	a1,s3
    800014cc:	855e                	mv	a0,s7
    800014ce:	a95ff0ef          	jal	80000f62 <walk>
    800014d2:	cd1d                	beqz	a0,80001510 <uvmcopy+0x6c>
    if((*pte & PTE_V) == 0)
    800014d4:	6118                	ld	a4,0(a0)
    800014d6:	00177793          	andi	a5,a4,1
    800014da:	c3a9                	beqz	a5,8000151c <uvmcopy+0x78>
    pa = PTE2PA(*pte);
    800014dc:	00a75593          	srli	a1,a4,0xa
    800014e0:	00c59c13          	slli	s8,a1,0xc
    flags = PTE_FLAGS(*pte);
    800014e4:	3ff77493          	andi	s1,a4,1023
    if((mem = kalloc()) == 0)
    800014e8:	e42ff0ef          	jal	80000b2a <kalloc>
    800014ec:	892a                	mv	s2,a0
    800014ee:	c121                	beqz	a0,8000152e <uvmcopy+0x8a>
    memmove(mem, (char*)pa, PGSIZE);
    800014f0:	8652                	mv	a2,s4
    800014f2:	85e2                	mv	a1,s8
    800014f4:	83fff0ef          	jal	80000d32 <memmove>
    if(mappages(new, i, PGSIZE, (uint64)mem, flags) != 0){
    800014f8:	8726                	mv	a4,s1
    800014fa:	86ca                	mv	a3,s2
    800014fc:	8652                	mv	a2,s4
    800014fe:	85ce                	mv	a1,s3
    80001500:	855a                	mv	a0,s6
    80001502:	b39ff0ef          	jal	8000103a <mappages>
    80001506:	e10d                	bnez	a0,80001528 <uvmcopy+0x84>
  for(i = 0; i < sz; i += PGSIZE){
    80001508:	99d2                	add	s3,s3,s4
    8000150a:	fb59efe3          	bltu	s3,s5,800014c8 <uvmcopy+0x24>
    8000150e:	a805                	j	8000153e <uvmcopy+0x9a>
      panic("uvmcopy: pte should exist");
    80001510:	00006517          	auipc	a0,0x6
    80001514:	c9850513          	addi	a0,a0,-872 # 800071a8 <etext+0x1a8>
    80001518:	a86ff0ef          	jal	8000079e <panic>
      panic("uvmcopy: page not present");
    8000151c:	00006517          	auipc	a0,0x6
    80001520:	cac50513          	addi	a0,a0,-852 # 800071c8 <etext+0x1c8>
    80001524:	a7aff0ef          	jal	8000079e <panic>
      kfree(mem);
    80001528:	854a                	mv	a0,s2
    8000152a:	d1eff0ef          	jal	80000a48 <kfree>
    }
  }
  return 0;

 err:
  uvmunmap(new, 0, i / PGSIZE, 1);
    8000152e:	4685                	li	a3,1
    80001530:	00c9d613          	srli	a2,s3,0xc
    80001534:	4581                	li	a1,0
    80001536:	855a                	mv	a0,s6
    80001538:	ca9ff0ef          	jal	800011e0 <uvmunmap>
  return -1;
    8000153c:	557d                	li	a0,-1
}
    8000153e:	60a6                	ld	ra,72(sp)
    80001540:	6406                	ld	s0,64(sp)
    80001542:	74e2                	ld	s1,56(sp)
    80001544:	7942                	ld	s2,48(sp)
    80001546:	79a2                	ld	s3,40(sp)
    80001548:	7a02                	ld	s4,32(sp)
    8000154a:	6ae2                	ld	s5,24(sp)
    8000154c:	6b42                	ld	s6,16(sp)
    8000154e:	6ba2                	ld	s7,8(sp)
    80001550:	6c02                	ld	s8,0(sp)
    80001552:	6161                	addi	sp,sp,80
    80001554:	8082                	ret
  return 0;
    80001556:	4501                	li	a0,0
}
    80001558:	8082                	ret

000000008000155a <uvmclear>:

// mark a PTE invalid for user access.
// used by exec for the user stack guard page.
void
uvmclear(pagetable_t pagetable, uint64 va)
{
    8000155a:	1141                	addi	sp,sp,-16
    8000155c:	e406                	sd	ra,8(sp)
    8000155e:	e022                	sd	s0,0(sp)
    80001560:	0800                	addi	s0,sp,16
  pte_t *pte;
  
  pte = walk(pagetable, va, 0);
    80001562:	4601                	li	a2,0
    80001564:	9ffff0ef          	jal	80000f62 <walk>
  if(pte == 0)
    80001568:	c901                	beqz	a0,80001578 <uvmclear+0x1e>
    panic("uvmclear");
  *pte &= ~PTE_U;
    8000156a:	611c                	ld	a5,0(a0)
    8000156c:	9bbd                	andi	a5,a5,-17
    8000156e:	e11c                	sd	a5,0(a0)
}
    80001570:	60a2                	ld	ra,8(sp)
    80001572:	6402                	ld	s0,0(sp)
    80001574:	0141                	addi	sp,sp,16
    80001576:	8082                	ret
    panic("uvmclear");
    80001578:	00006517          	auipc	a0,0x6
    8000157c:	c7050513          	addi	a0,a0,-912 # 800071e8 <etext+0x1e8>
    80001580:	a1eff0ef          	jal	8000079e <panic>

0000000080001584 <copyout>:
copyout(pagetable_t pagetable, uint64 dstva, char *src, uint64 len)
{
  uint64 n, va0, pa0;
  pte_t *pte;

  while(len > 0){
    80001584:	c2d9                	beqz	a3,8000160a <copyout+0x86>
{
    80001586:	711d                	addi	sp,sp,-96
    80001588:	ec86                	sd	ra,88(sp)
    8000158a:	e8a2                	sd	s0,80(sp)
    8000158c:	e4a6                	sd	s1,72(sp)
    8000158e:	e0ca                	sd	s2,64(sp)
    80001590:	fc4e                	sd	s3,56(sp)
    80001592:	f852                	sd	s4,48(sp)
    80001594:	f456                	sd	s5,40(sp)
    80001596:	f05a                	sd	s6,32(sp)
    80001598:	ec5e                	sd	s7,24(sp)
    8000159a:	e862                	sd	s8,16(sp)
    8000159c:	e466                	sd	s9,8(sp)
    8000159e:	e06a                	sd	s10,0(sp)
    800015a0:	1080                	addi	s0,sp,96
    800015a2:	8c2a                	mv	s8,a0
    800015a4:	892e                	mv	s2,a1
    800015a6:	8ab2                	mv	s5,a2
    800015a8:	8a36                	mv	s4,a3
    va0 = PGROUNDDOWN(dstva);
    800015aa:	7cfd                	lui	s9,0xfffff
    if(va0 >= MAXVA)
    800015ac:	5bfd                	li	s7,-1
    800015ae:	01abdb93          	srli	s7,s7,0x1a
      return -1;
    pte = walk(pagetable, va0, 0);
    if(pte == 0 || (*pte & PTE_V) == 0 || (*pte & PTE_U) == 0 ||
    800015b2:	4d55                	li	s10,21
       (*pte & PTE_W) == 0)
      return -1;
    pa0 = PTE2PA(*pte);
    n = PGSIZE - (dstva - va0);
    800015b4:	6b05                	lui	s6,0x1
    800015b6:	a015                	j	800015da <copyout+0x56>
    pa0 = PTE2PA(*pte);
    800015b8:	83a9                	srli	a5,a5,0xa
    800015ba:	07b2                	slli	a5,a5,0xc
    if(n > len)
      n = len;
    memmove((void *)(pa0 + (dstva - va0)), src, n);
    800015bc:	41390533          	sub	a0,s2,s3
    800015c0:	0004861b          	sext.w	a2,s1
    800015c4:	85d6                	mv	a1,s5
    800015c6:	953e                	add	a0,a0,a5
    800015c8:	f6aff0ef          	jal	80000d32 <memmove>

    len -= n;
    800015cc:	409a0a33          	sub	s4,s4,s1
    src += n;
    800015d0:	9aa6                	add	s5,s5,s1
    dstva = va0 + PGSIZE;
    800015d2:	01698933          	add	s2,s3,s6
  while(len > 0){
    800015d6:	020a0863          	beqz	s4,80001606 <copyout+0x82>
    va0 = PGROUNDDOWN(dstva);
    800015da:	019979b3          	and	s3,s2,s9
    if(va0 >= MAXVA)
    800015de:	033be863          	bltu	s7,s3,8000160e <copyout+0x8a>
    pte = walk(pagetable, va0, 0);
    800015e2:	4601                	li	a2,0
    800015e4:	85ce                	mv	a1,s3
    800015e6:	8562                	mv	a0,s8
    800015e8:	97bff0ef          	jal	80000f62 <walk>
    if(pte == 0 || (*pte & PTE_V) == 0 || (*pte & PTE_U) == 0 ||
    800015ec:	c121                	beqz	a0,8000162c <copyout+0xa8>
    800015ee:	611c                	ld	a5,0(a0)
    800015f0:	0157f713          	andi	a4,a5,21
    800015f4:	03a71e63          	bne	a4,s10,80001630 <copyout+0xac>
    n = PGSIZE - (dstva - va0);
    800015f8:	412984b3          	sub	s1,s3,s2
    800015fc:	94da                	add	s1,s1,s6
    if(n > len)
    800015fe:	fa9a7de3          	bgeu	s4,s1,800015b8 <copyout+0x34>
    80001602:	84d2                	mv	s1,s4
    80001604:	bf55                	j	800015b8 <copyout+0x34>
  }
  return 0;
    80001606:	4501                	li	a0,0
    80001608:	a021                	j	80001610 <copyout+0x8c>
    8000160a:	4501                	li	a0,0
}
    8000160c:	8082                	ret
      return -1;
    8000160e:	557d                	li	a0,-1
}
    80001610:	60e6                	ld	ra,88(sp)
    80001612:	6446                	ld	s0,80(sp)
    80001614:	64a6                	ld	s1,72(sp)
    80001616:	6906                	ld	s2,64(sp)
    80001618:	79e2                	ld	s3,56(sp)
    8000161a:	7a42                	ld	s4,48(sp)
    8000161c:	7aa2                	ld	s5,40(sp)
    8000161e:	7b02                	ld	s6,32(sp)
    80001620:	6be2                	ld	s7,24(sp)
    80001622:	6c42                	ld	s8,16(sp)
    80001624:	6ca2                	ld	s9,8(sp)
    80001626:	6d02                	ld	s10,0(sp)
    80001628:	6125                	addi	sp,sp,96
    8000162a:	8082                	ret
      return -1;
    8000162c:	557d                	li	a0,-1
    8000162e:	b7cd                	j	80001610 <copyout+0x8c>
    80001630:	557d                	li	a0,-1
    80001632:	bff9                	j	80001610 <copyout+0x8c>

0000000080001634 <copyin>:
int
copyin(pagetable_t pagetable, char *dst, uint64 srcva, uint64 len)
{
  uint64 n, va0, pa0;

  while(len > 0){
    80001634:	c6a5                	beqz	a3,8000169c <copyin+0x68>
{
    80001636:	715d                	addi	sp,sp,-80
    80001638:	e486                	sd	ra,72(sp)
    8000163a:	e0a2                	sd	s0,64(sp)
    8000163c:	fc26                	sd	s1,56(sp)
    8000163e:	f84a                	sd	s2,48(sp)
    80001640:	f44e                	sd	s3,40(sp)
    80001642:	f052                	sd	s4,32(sp)
    80001644:	ec56                	sd	s5,24(sp)
    80001646:	e85a                	sd	s6,16(sp)
    80001648:	e45e                	sd	s7,8(sp)
    8000164a:	e062                	sd	s8,0(sp)
    8000164c:	0880                	addi	s0,sp,80
    8000164e:	8b2a                	mv	s6,a0
    80001650:	8a2e                	mv	s4,a1
    80001652:	8c32                	mv	s8,a2
    80001654:	89b6                	mv	s3,a3
    va0 = PGROUNDDOWN(srcva);
    80001656:	7bfd                	lui	s7,0xfffff
    pa0 = walkaddr(pagetable, va0);
    if(pa0 == 0)
      return -1;
    n = PGSIZE - (srcva - va0);
    80001658:	6a85                	lui	s5,0x1
    8000165a:	a00d                	j	8000167c <copyin+0x48>
    if(n > len)
      n = len;
    memmove(dst, (void *)(pa0 + (srcva - va0)), n);
    8000165c:	018505b3          	add	a1,a0,s8
    80001660:	0004861b          	sext.w	a2,s1
    80001664:	412585b3          	sub	a1,a1,s2
    80001668:	8552                	mv	a0,s4
    8000166a:	ec8ff0ef          	jal	80000d32 <memmove>

    len -= n;
    8000166e:	409989b3          	sub	s3,s3,s1
    dst += n;
    80001672:	9a26                	add	s4,s4,s1
    srcva = va0 + PGSIZE;
    80001674:	01590c33          	add	s8,s2,s5
  while(len > 0){
    80001678:	02098063          	beqz	s3,80001698 <copyin+0x64>
    va0 = PGROUNDDOWN(srcva);
    8000167c:	017c7933          	and	s2,s8,s7
    pa0 = walkaddr(pagetable, va0);
    80001680:	85ca                	mv	a1,s2
    80001682:	855a                	mv	a0,s6
    80001684:	979ff0ef          	jal	80000ffc <walkaddr>
    if(pa0 == 0)
    80001688:	cd01                	beqz	a0,800016a0 <copyin+0x6c>
    n = PGSIZE - (srcva - va0);
    8000168a:	418904b3          	sub	s1,s2,s8
    8000168e:	94d6                	add	s1,s1,s5
    if(n > len)
    80001690:	fc99f6e3          	bgeu	s3,s1,8000165c <copyin+0x28>
    80001694:	84ce                	mv	s1,s3
    80001696:	b7d9                	j	8000165c <copyin+0x28>
  }
  return 0;
    80001698:	4501                	li	a0,0
    8000169a:	a021                	j	800016a2 <copyin+0x6e>
    8000169c:	4501                	li	a0,0
}
    8000169e:	8082                	ret
      return -1;
    800016a0:	557d                	li	a0,-1
}
    800016a2:	60a6                	ld	ra,72(sp)
    800016a4:	6406                	ld	s0,64(sp)
    800016a6:	74e2                	ld	s1,56(sp)
    800016a8:	7942                	ld	s2,48(sp)
    800016aa:	79a2                	ld	s3,40(sp)
    800016ac:	7a02                	ld	s4,32(sp)
    800016ae:	6ae2                	ld	s5,24(sp)
    800016b0:	6b42                	ld	s6,16(sp)
    800016b2:	6ba2                	ld	s7,8(sp)
    800016b4:	6c02                	ld	s8,0(sp)
    800016b6:	6161                	addi	sp,sp,80
    800016b8:	8082                	ret

00000000800016ba <copyinstr>:
// Copy bytes to dst from virtual address srcva in a given page table,
// until a '\0', or max.
// Return 0 on success, -1 on error.
int
copyinstr(pagetable_t pagetable, char *dst, uint64 srcva, uint64 max)
{
    800016ba:	715d                	addi	sp,sp,-80
    800016bc:	e486                	sd	ra,72(sp)
    800016be:	e0a2                	sd	s0,64(sp)
    800016c0:	fc26                	sd	s1,56(sp)
    800016c2:	f84a                	sd	s2,48(sp)
    800016c4:	f44e                	sd	s3,40(sp)
    800016c6:	f052                	sd	s4,32(sp)
    800016c8:	ec56                	sd	s5,24(sp)
    800016ca:	e85a                	sd	s6,16(sp)
    800016cc:	e45e                	sd	s7,8(sp)
    800016ce:	0880                	addi	s0,sp,80
    800016d0:	8aaa                	mv	s5,a0
    800016d2:	89ae                	mv	s3,a1
    800016d4:	8bb2                	mv	s7,a2
    800016d6:	84b6                	mv	s1,a3
  uint64 n, va0, pa0;
  int got_null = 0;

  while(got_null == 0 && max > 0){
    va0 = PGROUNDDOWN(srcva);
    800016d8:	7b7d                	lui	s6,0xfffff
    pa0 = walkaddr(pagetable, va0);
    if(pa0 == 0)
      return -1;
    n = PGSIZE - (srcva - va0);
    800016da:	6a05                	lui	s4,0x1
    800016dc:	a02d                	j	80001706 <copyinstr+0x4c>
      n = max;

    char *p = (char *) (pa0 + (srcva - va0));
    while(n > 0){
      if(*p == '\0'){
        *dst = '\0';
    800016de:	00078023          	sb	zero,0(a5)
    800016e2:	4785                	li	a5,1
      dst++;
    }

    srcva = va0 + PGSIZE;
  }
  if(got_null){
    800016e4:	0017c793          	xori	a5,a5,1
    800016e8:	40f0053b          	negw	a0,a5
    return 0;
  } else {
    return -1;
  }
}
    800016ec:	60a6                	ld	ra,72(sp)
    800016ee:	6406                	ld	s0,64(sp)
    800016f0:	74e2                	ld	s1,56(sp)
    800016f2:	7942                	ld	s2,48(sp)
    800016f4:	79a2                	ld	s3,40(sp)
    800016f6:	7a02                	ld	s4,32(sp)
    800016f8:	6ae2                	ld	s5,24(sp)
    800016fa:	6b42                	ld	s6,16(sp)
    800016fc:	6ba2                	ld	s7,8(sp)
    800016fe:	6161                	addi	sp,sp,80
    80001700:	8082                	ret
    srcva = va0 + PGSIZE;
    80001702:	01490bb3          	add	s7,s2,s4
  while(got_null == 0 && max > 0){
    80001706:	c4b1                	beqz	s1,80001752 <copyinstr+0x98>
    va0 = PGROUNDDOWN(srcva);
    80001708:	016bf933          	and	s2,s7,s6
    pa0 = walkaddr(pagetable, va0);
    8000170c:	85ca                	mv	a1,s2
    8000170e:	8556                	mv	a0,s5
    80001710:	8edff0ef          	jal	80000ffc <walkaddr>
    if(pa0 == 0)
    80001714:	c129                	beqz	a0,80001756 <copyinstr+0x9c>
    n = PGSIZE - (srcva - va0);
    80001716:	41790633          	sub	a2,s2,s7
    8000171a:	9652                	add	a2,a2,s4
    if(n > max)
    8000171c:	00c4f363          	bgeu	s1,a2,80001722 <copyinstr+0x68>
    80001720:	8626                	mv	a2,s1
    char *p = (char *) (pa0 + (srcva - va0));
    80001722:	412b8bb3          	sub	s7,s7,s2
    80001726:	9baa                	add	s7,s7,a0
    while(n > 0){
    80001728:	de69                	beqz	a2,80001702 <copyinstr+0x48>
    8000172a:	87ce                	mv	a5,s3
      if(*p == '\0'){
    8000172c:	413b86b3          	sub	a3,s7,s3
    while(n > 0){
    80001730:	964e                	add	a2,a2,s3
    80001732:	85be                	mv	a1,a5
      if(*p == '\0'){
    80001734:	00f68733          	add	a4,a3,a5
    80001738:	00074703          	lbu	a4,0(a4)
    8000173c:	d34d                	beqz	a4,800016de <copyinstr+0x24>
        *dst = *p;
    8000173e:	00e78023          	sb	a4,0(a5)
      dst++;
    80001742:	0785                	addi	a5,a5,1
    while(n > 0){
    80001744:	fec797e3          	bne	a5,a2,80001732 <copyinstr+0x78>
    80001748:	14fd                	addi	s1,s1,-1
    8000174a:	94ce                	add	s1,s1,s3
      --max;
    8000174c:	8c8d                	sub	s1,s1,a1
    8000174e:	89be                	mv	s3,a5
    80001750:	bf4d                	j	80001702 <copyinstr+0x48>
    80001752:	4781                	li	a5,0
    80001754:	bf41                	j	800016e4 <copyinstr+0x2a>
      return -1;
    80001756:	557d                	li	a0,-1
    80001758:	bf51                	j	800016ec <copyinstr+0x32>

000000008000175a <proc_mapstacks>:

// Allocate a page for each process's kernel stack.
// Map it high in memory, followed by an invalid
// guard page.
void proc_mapstacks(pagetable_t kpgtbl)
{
    8000175a:	715d                	addi	sp,sp,-80
    8000175c:	e486                	sd	ra,72(sp)
    8000175e:	e0a2                	sd	s0,64(sp)
    80001760:	fc26                	sd	s1,56(sp)
    80001762:	f84a                	sd	s2,48(sp)
    80001764:	f44e                	sd	s3,40(sp)
    80001766:	f052                	sd	s4,32(sp)
    80001768:	ec56                	sd	s5,24(sp)
    8000176a:	e85a                	sd	s6,16(sp)
    8000176c:	e45e                	sd	s7,8(sp)
    8000176e:	e062                	sd	s8,0(sp)
    80001770:	0880                	addi	s0,sp,80
    80001772:	8a2a                	mv	s4,a0
  struct proc *p;

  for (p = proc; p < &proc[NPROC]; p++)
    80001774:	0000f497          	auipc	s1,0xf
    80001778:	88c48493          	addi	s1,s1,-1908 # 80010000 <proc>
  {
    char *pa = kalloc();
    if (pa == 0)
      panic("kalloc");
    uint64 va = KSTACK((int)(p - proc));
    8000177c:	8c26                	mv	s8,s1
    8000177e:	eb2fe7b7          	lui	a5,0xeb2fe
    80001782:	eb378793          	addi	a5,a5,-333 # ffffffffeb2fdeb3 <end+0xffffffff6b2d34d3>
    80001786:	2fdeb937          	lui	s2,0x2fdeb
    8000178a:	2fe90913          	addi	s2,s2,766 # 2fdeb2fe <_entry-0x50214d02>
    8000178e:	1902                	slli	s2,s2,0x20
    80001790:	993e                	add	s2,s2,a5
    80001792:	040009b7          	lui	s3,0x4000
    80001796:	19fd                	addi	s3,s3,-1 # 3ffffff <_entry-0x7c000001>
    80001798:	09b2                	slli	s3,s3,0xc
    kvmmap(kpgtbl, va, (uint64)pa, PGSIZE, PTE_R | PTE_W);
    8000179a:	4b99                	li	s7,6
    8000179c:	6b05                	lui	s6,0x1
  for (p = proc; p < &proc[NPROC]; p++)
    8000179e:	0001ea97          	auipc	s5,0x1e
    800017a2:	e62a8a93          	addi	s5,s5,-414 # 8001f600 <tickslock>
    char *pa = kalloc();
    800017a6:	b84ff0ef          	jal	80000b2a <kalloc>
    800017aa:	862a                	mv	a2,a0
    if (pa == 0)
    800017ac:	c121                	beqz	a0,800017ec <proc_mapstacks+0x92>
    uint64 va = KSTACK((int)(p - proc));
    800017ae:	418485b3          	sub	a1,s1,s8
    800017b2:	858d                	srai	a1,a1,0x3
    800017b4:	032585b3          	mul	a1,a1,s2
    800017b8:	2585                	addiw	a1,a1,1
    800017ba:	00d5959b          	slliw	a1,a1,0xd
    kvmmap(kpgtbl, va, (uint64)pa, PGSIZE, PTE_R | PTE_W);
    800017be:	875e                	mv	a4,s7
    800017c0:	86da                	mv	a3,s6
    800017c2:	40b985b3          	sub	a1,s3,a1
    800017c6:	8552                	mv	a0,s4
    800017c8:	929ff0ef          	jal	800010f0 <kvmmap>
  for (p = proc; p < &proc[NPROC]; p++)
    800017cc:	3d848493          	addi	s1,s1,984
    800017d0:	fd549be3          	bne	s1,s5,800017a6 <proc_mapstacks+0x4c>
  }
}
    800017d4:	60a6                	ld	ra,72(sp)
    800017d6:	6406                	ld	s0,64(sp)
    800017d8:	74e2                	ld	s1,56(sp)
    800017da:	7942                	ld	s2,48(sp)
    800017dc:	79a2                	ld	s3,40(sp)
    800017de:	7a02                	ld	s4,32(sp)
    800017e0:	6ae2                	ld	s5,24(sp)
    800017e2:	6b42                	ld	s6,16(sp)
    800017e4:	6ba2                	ld	s7,8(sp)
    800017e6:	6c02                	ld	s8,0(sp)
    800017e8:	6161                	addi	sp,sp,80
    800017ea:	8082                	ret
      panic("kalloc");
    800017ec:	00006517          	auipc	a0,0x6
    800017f0:	a0c50513          	addi	a0,a0,-1524 # 800071f8 <etext+0x1f8>
    800017f4:	fabfe0ef          	jal	8000079e <panic>

00000000800017f8 <procinit>:

// initialize the proc table.
void procinit(void)
{
    800017f8:	7139                	addi	sp,sp,-64
    800017fa:	fc06                	sd	ra,56(sp)
    800017fc:	f822                	sd	s0,48(sp)
    800017fe:	f426                	sd	s1,40(sp)
    80001800:	f04a                	sd	s2,32(sp)
    80001802:	ec4e                	sd	s3,24(sp)
    80001804:	e852                	sd	s4,16(sp)
    80001806:	e456                	sd	s5,8(sp)
    80001808:	e05a                	sd	s6,0(sp)
    8000180a:	0080                	addi	s0,sp,64
  struct proc *p;

  initlock(&pid_lock, "nextpid");
    8000180c:	00006597          	auipc	a1,0x6
    80001810:	9f458593          	addi	a1,a1,-1548 # 80007200 <etext+0x200>
    80001814:	0000e517          	auipc	a0,0xe
    80001818:	3bc50513          	addi	a0,a0,956 # 8000fbd0 <pid_lock>
    8000181c:	b5eff0ef          	jal	80000b7a <initlock>
  initlock(&wait_lock, "wait_lock");
    80001820:	00006597          	auipc	a1,0x6
    80001824:	9e858593          	addi	a1,a1,-1560 # 80007208 <etext+0x208>
    80001828:	0000e517          	auipc	a0,0xe
    8000182c:	3c050513          	addi	a0,a0,960 # 8000fbe8 <wait_lock>
    80001830:	b4aff0ef          	jal	80000b7a <initlock>
  for (p = proc; p < &proc[NPROC]; p++)
    80001834:	0000e497          	auipc	s1,0xe
    80001838:	7cc48493          	addi	s1,s1,1996 # 80010000 <proc>
  {
    initlock(&p->lock, "proc");
    8000183c:	00006b17          	auipc	s6,0x6
    80001840:	9dcb0b13          	addi	s6,s6,-1572 # 80007218 <etext+0x218>
    p->state = UNUSED;
    p->kstack = KSTACK((int)(p - proc));
    80001844:	8aa6                	mv	s5,s1
    80001846:	eb2fe7b7          	lui	a5,0xeb2fe
    8000184a:	eb378793          	addi	a5,a5,-333 # ffffffffeb2fdeb3 <end+0xffffffff6b2d34d3>
    8000184e:	2fdeb937          	lui	s2,0x2fdeb
    80001852:	2fe90913          	addi	s2,s2,766 # 2fdeb2fe <_entry-0x50214d02>
    80001856:	1902                	slli	s2,s2,0x20
    80001858:	993e                	add	s2,s2,a5
    8000185a:	040009b7          	lui	s3,0x4000
    8000185e:	19fd                	addi	s3,s3,-1 # 3ffffff <_entry-0x7c000001>
    80001860:	09b2                	slli	s3,s3,0xc
  for (p = proc; p < &proc[NPROC]; p++)
    80001862:	0001ea17          	auipc	s4,0x1e
    80001866:	d9ea0a13          	addi	s4,s4,-610 # 8001f600 <tickslock>
    initlock(&p->lock, "proc");
    8000186a:	85da                	mv	a1,s6
    8000186c:	8526                	mv	a0,s1
    8000186e:	b0cff0ef          	jal	80000b7a <initlock>
    p->state = UNUSED;
    80001872:	0004ac23          	sw	zero,24(s1)
    p->kstack = KSTACK((int)(p - proc));
    80001876:	415487b3          	sub	a5,s1,s5
    8000187a:	878d                	srai	a5,a5,0x3
    8000187c:	032787b3          	mul	a5,a5,s2
    80001880:	2785                	addiw	a5,a5,1
    80001882:	00d7979b          	slliw	a5,a5,0xd
    80001886:	40f987b3          	sub	a5,s3,a5
    8000188a:	e0bc                	sd	a5,64(s1)
  for (p = proc; p < &proc[NPROC]; p++)
    8000188c:	3d848493          	addi	s1,s1,984
    80001890:	fd449de3          	bne	s1,s4,8000186a <procinit+0x72>
  }
}
    80001894:	70e2                	ld	ra,56(sp)
    80001896:	7442                	ld	s0,48(sp)
    80001898:	74a2                	ld	s1,40(sp)
    8000189a:	7902                	ld	s2,32(sp)
    8000189c:	69e2                	ld	s3,24(sp)
    8000189e:	6a42                	ld	s4,16(sp)
    800018a0:	6aa2                	ld	s5,8(sp)
    800018a2:	6b02                	ld	s6,0(sp)
    800018a4:	6121                	addi	sp,sp,64
    800018a6:	8082                	ret

00000000800018a8 <cpuid>:

// Must be called with interrupts disabled,
// to prevent race with process being moved
// to a different CPU.
int cpuid()
{
    800018a8:	1141                	addi	sp,sp,-16
    800018aa:	e406                	sd	ra,8(sp)
    800018ac:	e022                	sd	s0,0(sp)
    800018ae:	0800                	addi	s0,sp,16
  asm volatile("mv %0, tp" : "=r" (x) );
    800018b0:	8512                	mv	a0,tp
  int id = r_tp();
  return id;
}
    800018b2:	2501                	sext.w	a0,a0
    800018b4:	60a2                	ld	ra,8(sp)
    800018b6:	6402                	ld	s0,0(sp)
    800018b8:	0141                	addi	sp,sp,16
    800018ba:	8082                	ret

00000000800018bc <mycpu>:

// Return this CPU's cpu struct.
// Interrupts must be disabled.
struct cpu *
mycpu(void)
{
    800018bc:	1141                	addi	sp,sp,-16
    800018be:	e406                	sd	ra,8(sp)
    800018c0:	e022                	sd	s0,0(sp)
    800018c2:	0800                	addi	s0,sp,16
    800018c4:	8792                	mv	a5,tp
  int id = cpuid();
  struct cpu *c = &cpus[id];
    800018c6:	2781                	sext.w	a5,a5
    800018c8:	079e                	slli	a5,a5,0x7
  return c;
}
    800018ca:	0000e517          	auipc	a0,0xe
    800018ce:	33650513          	addi	a0,a0,822 # 8000fc00 <cpus>
    800018d2:	953e                	add	a0,a0,a5
    800018d4:	60a2                	ld	ra,8(sp)
    800018d6:	6402                	ld	s0,0(sp)
    800018d8:	0141                	addi	sp,sp,16
    800018da:	8082                	ret

00000000800018dc <myproc>:

// Return the current struct proc *, or zero if none.
struct proc *
myproc(void)
{
    800018dc:	1101                	addi	sp,sp,-32
    800018de:	ec06                	sd	ra,24(sp)
    800018e0:	e822                	sd	s0,16(sp)
    800018e2:	e426                	sd	s1,8(sp)
    800018e4:	1000                	addi	s0,sp,32
  push_off();
    800018e6:	ad8ff0ef          	jal	80000bbe <push_off>
    800018ea:	8792                	mv	a5,tp
  struct cpu *c = mycpu();
  struct proc *p = c->proc;
    800018ec:	2781                	sext.w	a5,a5
    800018ee:	079e                	slli	a5,a5,0x7
    800018f0:	0000e717          	auipc	a4,0xe
    800018f4:	2e070713          	addi	a4,a4,736 # 8000fbd0 <pid_lock>
    800018f8:	97ba                	add	a5,a5,a4
    800018fa:	7b84                	ld	s1,48(a5)
  pop_off();
    800018fc:	b46ff0ef          	jal	80000c42 <pop_off>
  return p;
}
    80001900:	8526                	mv	a0,s1
    80001902:	60e2                	ld	ra,24(sp)
    80001904:	6442                	ld	s0,16(sp)
    80001906:	64a2                	ld	s1,8(sp)
    80001908:	6105                	addi	sp,sp,32
    8000190a:	8082                	ret

000000008000190c <forkret>:
}

// A fork child's very first scheduling by scheduler()
// will swtch to forkret.
void forkret(void)
{
    8000190c:	1141                	addi	sp,sp,-16
    8000190e:	e406                	sd	ra,8(sp)
    80001910:	e022                	sd	s0,0(sp)
    80001912:	0800                	addi	s0,sp,16
  static int first = 1;

  // Still holding p->lock from scheduler.
  release(&myproc()->lock);
    80001914:	fc9ff0ef          	jal	800018dc <myproc>
    80001918:	b7aff0ef          	jal	80000c92 <release>

  if (first)
    8000191c:	00006797          	auipc	a5,0x6
    80001920:	1047a783          	lw	a5,260(a5) # 80007a20 <first.1>
    80001924:	e799                	bnez	a5,80001932 <forkret+0x26>
    first = 0;
    // ensure other cores see first=0.
    __sync_synchronize();
  }

  usertrapret();
    80001926:	641000ef          	jal	80002766 <usertrapret>
}
    8000192a:	60a2                	ld	ra,8(sp)
    8000192c:	6402                	ld	s0,0(sp)
    8000192e:	0141                	addi	sp,sp,16
    80001930:	8082                	ret
    fsinit(ROOTDEV);
    80001932:	4505                	li	a0,1
    80001934:	3b7010ef          	jal	800034ea <fsinit>
    first = 0;
    80001938:	00006797          	auipc	a5,0x6
    8000193c:	0e07a423          	sw	zero,232(a5) # 80007a20 <first.1>
    __sync_synchronize();
    80001940:	0330000f          	fence	rw,rw
    80001944:	b7cd                	j	80001926 <forkret+0x1a>

0000000080001946 <allocpid>:
{
    80001946:	1101                	addi	sp,sp,-32
    80001948:	ec06                	sd	ra,24(sp)
    8000194a:	e822                	sd	s0,16(sp)
    8000194c:	e426                	sd	s1,8(sp)
    8000194e:	e04a                	sd	s2,0(sp)
    80001950:	1000                	addi	s0,sp,32
  acquire(&pid_lock);
    80001952:	0000e917          	auipc	s2,0xe
    80001956:	27e90913          	addi	s2,s2,638 # 8000fbd0 <pid_lock>
    8000195a:	854a                	mv	a0,s2
    8000195c:	aa2ff0ef          	jal	80000bfe <acquire>
  pid = nextpid;
    80001960:	00006797          	auipc	a5,0x6
    80001964:	0c878793          	addi	a5,a5,200 # 80007a28 <nextpid>
    80001968:	4384                	lw	s1,0(a5)
  nextpid = nextpid + 1;
    8000196a:	0014871b          	addiw	a4,s1,1
    8000196e:	c398                	sw	a4,0(a5)
  release(&pid_lock);
    80001970:	854a                	mv	a0,s2
    80001972:	b20ff0ef          	jal	80000c92 <release>
}
    80001976:	8526                	mv	a0,s1
    80001978:	60e2                	ld	ra,24(sp)
    8000197a:	6442                	ld	s0,16(sp)
    8000197c:	64a2                	ld	s1,8(sp)
    8000197e:	6902                	ld	s2,0(sp)
    80001980:	6105                	addi	sp,sp,32
    80001982:	8082                	ret

0000000080001984 <proc_pagetable>:
{
    80001984:	1101                	addi	sp,sp,-32
    80001986:	ec06                	sd	ra,24(sp)
    80001988:	e822                	sd	s0,16(sp)
    8000198a:	e426                	sd	s1,8(sp)
    8000198c:	e04a                	sd	s2,0(sp)
    8000198e:	1000                	addi	s0,sp,32
    80001990:	892a                	mv	s2,a0
  pagetable = uvmcreate();
    80001992:	90bff0ef          	jal	8000129c <uvmcreate>
    80001996:	84aa                	mv	s1,a0
  if (pagetable == 0)
    80001998:	cd05                	beqz	a0,800019d0 <proc_pagetable+0x4c>
  if (mappages(pagetable, TRAMPOLINE, PGSIZE,
    8000199a:	4729                	li	a4,10
    8000199c:	00004697          	auipc	a3,0x4
    800019a0:	66468693          	addi	a3,a3,1636 # 80006000 <_trampoline>
    800019a4:	6605                	lui	a2,0x1
    800019a6:	040005b7          	lui	a1,0x4000
    800019aa:	15fd                	addi	a1,a1,-1 # 3ffffff <_entry-0x7c000001>
    800019ac:	05b2                	slli	a1,a1,0xc
    800019ae:	e8cff0ef          	jal	8000103a <mappages>
    800019b2:	02054663          	bltz	a0,800019de <proc_pagetable+0x5a>
  if (mappages(pagetable, TRAPFRAME, PGSIZE,
    800019b6:	4719                	li	a4,6
    800019b8:	05893683          	ld	a3,88(s2)
    800019bc:	6605                	lui	a2,0x1
    800019be:	020005b7          	lui	a1,0x2000
    800019c2:	15fd                	addi	a1,a1,-1 # 1ffffff <_entry-0x7e000001>
    800019c4:	05b6                	slli	a1,a1,0xd
    800019c6:	8526                	mv	a0,s1
    800019c8:	e72ff0ef          	jal	8000103a <mappages>
    800019cc:	00054f63          	bltz	a0,800019ea <proc_pagetable+0x66>
}
    800019d0:	8526                	mv	a0,s1
    800019d2:	60e2                	ld	ra,24(sp)
    800019d4:	6442                	ld	s0,16(sp)
    800019d6:	64a2                	ld	s1,8(sp)
    800019d8:	6902                	ld	s2,0(sp)
    800019da:	6105                	addi	sp,sp,32
    800019dc:	8082                	ret
    uvmfree(pagetable, 0);
    800019de:	4581                	li	a1,0
    800019e0:	8526                	mv	a0,s1
    800019e2:	a91ff0ef          	jal	80001472 <uvmfree>
    return 0;
    800019e6:	4481                	li	s1,0
    800019e8:	b7e5                	j	800019d0 <proc_pagetable+0x4c>
    uvmunmap(pagetable, TRAMPOLINE, 1, 0);
    800019ea:	4681                	li	a3,0
    800019ec:	4605                	li	a2,1
    800019ee:	040005b7          	lui	a1,0x4000
    800019f2:	15fd                	addi	a1,a1,-1 # 3ffffff <_entry-0x7c000001>
    800019f4:	05b2                	slli	a1,a1,0xc
    800019f6:	8526                	mv	a0,s1
    800019f8:	fe8ff0ef          	jal	800011e0 <uvmunmap>
    uvmfree(pagetable, 0);
    800019fc:	4581                	li	a1,0
    800019fe:	8526                	mv	a0,s1
    80001a00:	a73ff0ef          	jal	80001472 <uvmfree>
    return 0;
    80001a04:	4481                	li	s1,0
    80001a06:	b7e9                	j	800019d0 <proc_pagetable+0x4c>

0000000080001a08 <proc_freepagetable>:
{
    80001a08:	1101                	addi	sp,sp,-32
    80001a0a:	ec06                	sd	ra,24(sp)
    80001a0c:	e822                	sd	s0,16(sp)
    80001a0e:	e426                	sd	s1,8(sp)
    80001a10:	e04a                	sd	s2,0(sp)
    80001a12:	1000                	addi	s0,sp,32
    80001a14:	84aa                	mv	s1,a0
    80001a16:	892e                	mv	s2,a1
  uvmunmap(pagetable, TRAMPOLINE, 1, 0);
    80001a18:	4681                	li	a3,0
    80001a1a:	4605                	li	a2,1
    80001a1c:	040005b7          	lui	a1,0x4000
    80001a20:	15fd                	addi	a1,a1,-1 # 3ffffff <_entry-0x7c000001>
    80001a22:	05b2                	slli	a1,a1,0xc
    80001a24:	fbcff0ef          	jal	800011e0 <uvmunmap>
  uvmunmap(pagetable, TRAPFRAME, 1, 0);
    80001a28:	4681                	li	a3,0
    80001a2a:	4605                	li	a2,1
    80001a2c:	020005b7          	lui	a1,0x2000
    80001a30:	15fd                	addi	a1,a1,-1 # 1ffffff <_entry-0x7e000001>
    80001a32:	05b6                	slli	a1,a1,0xd
    80001a34:	8526                	mv	a0,s1
    80001a36:	faaff0ef          	jal	800011e0 <uvmunmap>
  uvmfree(pagetable, sz);
    80001a3a:	85ca                	mv	a1,s2
    80001a3c:	8526                	mv	a0,s1
    80001a3e:	a35ff0ef          	jal	80001472 <uvmfree>
}
    80001a42:	60e2                	ld	ra,24(sp)
    80001a44:	6442                	ld	s0,16(sp)
    80001a46:	64a2                	ld	s1,8(sp)
    80001a48:	6902                	ld	s2,0(sp)
    80001a4a:	6105                	addi	sp,sp,32
    80001a4c:	8082                	ret

0000000080001a4e <freeproc>:
{
    80001a4e:	1101                	addi	sp,sp,-32
    80001a50:	ec06                	sd	ra,24(sp)
    80001a52:	e822                	sd	s0,16(sp)
    80001a54:	e426                	sd	s1,8(sp)
    80001a56:	1000                	addi	s0,sp,32
    80001a58:	84aa                	mv	s1,a0
  if (p->trapframe)
    80001a5a:	6d28                	ld	a0,88(a0)
    80001a5c:	c119                	beqz	a0,80001a62 <freeproc+0x14>
    kfree((void *)p->trapframe);
    80001a5e:	febfe0ef          	jal	80000a48 <kfree>
  p->trapframe = 0;
    80001a62:	0404bc23          	sd	zero,88(s1)
  if (p->pagetable)
    80001a66:	68a8                	ld	a0,80(s1)
    80001a68:	c501                	beqz	a0,80001a70 <freeproc+0x22>
    proc_freepagetable(p->pagetable, p->sz);
    80001a6a:	64ac                	ld	a1,72(s1)
    80001a6c:	f9dff0ef          	jal	80001a08 <proc_freepagetable>
  p->pagetable = 0;
    80001a70:	0404b823          	sd	zero,80(s1)
  p->sz = 0;
    80001a74:	0404b423          	sd	zero,72(s1)
  p->pid = 0;
    80001a78:	0204a823          	sw	zero,48(s1)
  p->parent = 0;
    80001a7c:	0204bc23          	sd	zero,56(s1)
  p->name[0] = 0;
    80001a80:	14048c23          	sb	zero,344(s1)
  p->chan = 0;
    80001a84:	0204b023          	sd	zero,32(s1)
  p->killed = 0;
    80001a88:	0204a423          	sw	zero,40(s1)
  p->xstate = 0;
    80001a8c:	0204a623          	sw	zero,44(s1)
  p->state = UNUSED;
    80001a90:	0004ac23          	sw	zero,24(s1)
}
    80001a94:	60e2                	ld	ra,24(sp)
    80001a96:	6442                	ld	s0,16(sp)
    80001a98:	64a2                	ld	s1,8(sp)
    80001a9a:	6105                	addi	sp,sp,32
    80001a9c:	8082                	ret

0000000080001a9e <allocproc>:
{
    80001a9e:	7139                	addi	sp,sp,-64
    80001aa0:	fc06                	sd	ra,56(sp)
    80001aa2:	f822                	sd	s0,48(sp)
    80001aa4:	f426                	sd	s1,40(sp)
    80001aa6:	f04a                	sd	s2,32(sp)
    80001aa8:	0080                	addi	s0,sp,64
  for (p = proc; p < &proc[NPROC]; p++)
    80001aaa:	0000e497          	auipc	s1,0xe
    80001aae:	55648493          	addi	s1,s1,1366 # 80010000 <proc>
    80001ab2:	0001e917          	auipc	s2,0x1e
    80001ab6:	b4e90913          	addi	s2,s2,-1202 # 8001f600 <tickslock>
    acquire(&p->lock);
    80001aba:	8526                	mv	a0,s1
    80001abc:	942ff0ef          	jal	80000bfe <acquire>
    if (p->state == UNUSED)
    80001ac0:	4c9c                	lw	a5,24(s1)
    80001ac2:	cb91                	beqz	a5,80001ad6 <allocproc+0x38>
      release(&p->lock);
    80001ac4:	8526                	mv	a0,s1
    80001ac6:	9ccff0ef          	jal	80000c92 <release>
  for (p = proc; p < &proc[NPROC]; p++)
    80001aca:	3d848493          	addi	s1,s1,984
    80001ace:	ff2496e3          	bne	s1,s2,80001aba <allocproc+0x1c>
  return 0;
    80001ad2:	4481                	li	s1,0
    80001ad4:	a04d                	j	80001b76 <allocproc+0xd8>
    80001ad6:	ec4e                	sd	s3,24(sp)
    80001ad8:	e852                	sd	s4,16(sp)
    80001ada:	e456                	sd	s5,8(sp)
  p->pid = allocpid();
    80001adc:	e6bff0ef          	jal	80001946 <allocpid>
    80001ae0:	d888                	sw	a0,48(s1)
  p->state = USED;
    80001ae2:	4785                	li	a5,1
    80001ae4:	cc9c                	sw	a5,24(s1)
  for (int i = 1; i <= NSYSCALL; i++)
    80001ae6:	00006997          	auipc	s3,0x6
    80001aea:	d6a98993          	addi	s3,s3,-662 # 80007850 <syscall_names+0x8>
    80001aee:	18048913          	addi	s2,s1,384
    80001af2:	00006a17          	auipc	s4,0x6
    80001af6:	e1ea0a13          	addi	s4,s4,-482 # 80007910 <states.0>
      safestrcpy(p->syscall_stats[i].syscall_name, syscall_names[i], sizeof(p->syscall_stats[i].syscall_name));
    80001afa:	4ac1                	li	s5,16
    80001afc:	a829                	j	80001b16 <allocproc+0x78>
    80001afe:	8656                	mv	a2,s5
    80001b00:	854a                	mv	a0,s2
    80001b02:	b1eff0ef          	jal	80000e20 <safestrcpy>
    p->syscall_stats[i].count = 0;
    80001b06:	00092823          	sw	zero,16(s2)
    p->syscall_stats[i].accum_time = 0;
    80001b0a:	00092a23          	sw	zero,20(s2)
  for (int i = 1; i <= NSYSCALL; i++)
    80001b0e:	09a1                	addi	s3,s3,8
    80001b10:	0961                	addi	s2,s2,24
    80001b12:	01498863          	beq	s3,s4,80001b22 <allocproc+0x84>
    if (syscall_names[i])
    80001b16:	0009b583          	ld	a1,0(s3)
    80001b1a:	f1f5                	bnez	a1,80001afe <allocproc+0x60>
      p->syscall_stats[i].syscall_name[0] = '\0';
    80001b1c:	00090023          	sb	zero,0(s2)
    80001b20:	b7dd                	j	80001b06 <allocproc+0x68>
  p->inq = 1;
    80001b22:	4785                	li	a5,1
    80001b24:	3cf4a423          	sw	a5,968(s1)
  p->curr_runtime = 0;
    80001b28:	3c04a823          	sw	zero,976(s1)
  p->time_slices = 0;
    80001b2c:	3c04a623          	sw	zero,972(s1)
  p->Original_tickets = DEFAULT_TICKET_COUNT;
    80001b30:	47a9                	li	a5,10
    80001b32:	3cf4a023          	sw	a5,960(s1)
  p->Current_tickets = DEFAULT_TICKET_COUNT;
    80001b36:	3cf4a223          	sw	a5,964(s1)
  if ((p->trapframe = (struct trapframe *)kalloc()) == 0)
    80001b3a:	ff1fe0ef          	jal	80000b2a <kalloc>
    80001b3e:	892a                	mv	s2,a0
    80001b40:	eca8                	sd	a0,88(s1)
    80001b42:	c129                	beqz	a0,80001b84 <allocproc+0xe6>
  p->pagetable = proc_pagetable(p);
    80001b44:	8526                	mv	a0,s1
    80001b46:	e3fff0ef          	jal	80001984 <proc_pagetable>
    80001b4a:	892a                	mv	s2,a0
    80001b4c:	e8a8                	sd	a0,80(s1)
  if (p->pagetable == 0)
    80001b4e:	c531                	beqz	a0,80001b9a <allocproc+0xfc>
  memset(&p->context, 0, sizeof(p->context));
    80001b50:	07000613          	li	a2,112
    80001b54:	4581                	li	a1,0
    80001b56:	06048513          	addi	a0,s1,96
    80001b5a:	974ff0ef          	jal	80000cce <memset>
  p->context.ra = (uint64)forkret;
    80001b5e:	00000797          	auipc	a5,0x0
    80001b62:	dae78793          	addi	a5,a5,-594 # 8000190c <forkret>
    80001b66:	f0bc                	sd	a5,96(s1)
  p->context.sp = p->kstack + PGSIZE;
    80001b68:	60bc                	ld	a5,64(s1)
    80001b6a:	6705                	lui	a4,0x1
    80001b6c:	97ba                	add	a5,a5,a4
    80001b6e:	f4bc                	sd	a5,104(s1)
    80001b70:	69e2                	ld	s3,24(sp)
    80001b72:	6a42                	ld	s4,16(sp)
    80001b74:	6aa2                	ld	s5,8(sp)
}
    80001b76:	8526                	mv	a0,s1
    80001b78:	70e2                	ld	ra,56(sp)
    80001b7a:	7442                	ld	s0,48(sp)
    80001b7c:	74a2                	ld	s1,40(sp)
    80001b7e:	7902                	ld	s2,32(sp)
    80001b80:	6121                	addi	sp,sp,64
    80001b82:	8082                	ret
    freeproc(p);
    80001b84:	8526                	mv	a0,s1
    80001b86:	ec9ff0ef          	jal	80001a4e <freeproc>
    release(&p->lock);
    80001b8a:	8526                	mv	a0,s1
    80001b8c:	906ff0ef          	jal	80000c92 <release>
    return 0;
    80001b90:	84ca                	mv	s1,s2
    80001b92:	69e2                	ld	s3,24(sp)
    80001b94:	6a42                	ld	s4,16(sp)
    80001b96:	6aa2                	ld	s5,8(sp)
    80001b98:	bff9                	j	80001b76 <allocproc+0xd8>
    freeproc(p);
    80001b9a:	8526                	mv	a0,s1
    80001b9c:	eb3ff0ef          	jal	80001a4e <freeproc>
    release(&p->lock);
    80001ba0:	8526                	mv	a0,s1
    80001ba2:	8f0ff0ef          	jal	80000c92 <release>
    return 0;
    80001ba6:	84ca                	mv	s1,s2
    80001ba8:	69e2                	ld	s3,24(sp)
    80001baa:	6a42                	ld	s4,16(sp)
    80001bac:	6aa2                	ld	s5,8(sp)
    80001bae:	b7e1                	j	80001b76 <allocproc+0xd8>

0000000080001bb0 <userinit>:
{
    80001bb0:	1101                	addi	sp,sp,-32
    80001bb2:	ec06                	sd	ra,24(sp)
    80001bb4:	e822                	sd	s0,16(sp)
    80001bb6:	e426                	sd	s1,8(sp)
    80001bb8:	1000                	addi	s0,sp,32
  p = allocproc();
    80001bba:	ee5ff0ef          	jal	80001a9e <allocproc>
    80001bbe:	84aa                	mv	s1,a0
  initproc = p;
    80001bc0:	00006797          	auipc	a5,0x6
    80001bc4:	eea7b023          	sd	a0,-288(a5) # 80007aa0 <initproc>
  uvmfirst(p->pagetable, initcode, sizeof(initcode));
    80001bc8:	03400613          	li	a2,52
    80001bcc:	00006597          	auipc	a1,0x6
    80001bd0:	e6458593          	addi	a1,a1,-412 # 80007a30 <initcode>
    80001bd4:	6928                	ld	a0,80(a0)
    80001bd6:	eecff0ef          	jal	800012c2 <uvmfirst>
  p->sz = PGSIZE;
    80001bda:	6785                	lui	a5,0x1
    80001bdc:	e4bc                	sd	a5,72(s1)
  p->trapframe->epc = 0;     // user program counter
    80001bde:	6cb8                	ld	a4,88(s1)
    80001be0:	00073c23          	sd	zero,24(a4) # 1018 <_entry-0x7fffefe8>
  p->trapframe->sp = PGSIZE; // user stack pointer
    80001be4:	6cb8                	ld	a4,88(s1)
    80001be6:	fb1c                	sd	a5,48(a4)
  safestrcpy(p->name, "initcode", sizeof(p->name));
    80001be8:	4641                	li	a2,16
    80001bea:	00005597          	auipc	a1,0x5
    80001bee:	63658593          	addi	a1,a1,1590 # 80007220 <etext+0x220>
    80001bf2:	15848513          	addi	a0,s1,344
    80001bf6:	a2aff0ef          	jal	80000e20 <safestrcpy>
  p->cwd = namei("/");
    80001bfa:	00005517          	auipc	a0,0x5
    80001bfe:	63650513          	addi	a0,a0,1590 # 80007230 <etext+0x230>
    80001c02:	20c020ef          	jal	80003e0e <namei>
    80001c06:	14a4b823          	sd	a0,336(s1)
  p->state = RUNNABLE;
    80001c0a:	478d                	li	a5,3
    80001c0c:	cc9c                	sw	a5,24(s1)
  release(&p->lock);
    80001c0e:	8526                	mv	a0,s1
    80001c10:	882ff0ef          	jal	80000c92 <release>
}
    80001c14:	60e2                	ld	ra,24(sp)
    80001c16:	6442                	ld	s0,16(sp)
    80001c18:	64a2                	ld	s1,8(sp)
    80001c1a:	6105                	addi	sp,sp,32
    80001c1c:	8082                	ret

0000000080001c1e <growproc>:
{
    80001c1e:	1101                	addi	sp,sp,-32
    80001c20:	ec06                	sd	ra,24(sp)
    80001c22:	e822                	sd	s0,16(sp)
    80001c24:	e426                	sd	s1,8(sp)
    80001c26:	e04a                	sd	s2,0(sp)
    80001c28:	1000                	addi	s0,sp,32
    80001c2a:	892a                	mv	s2,a0
  struct proc *p = myproc();
    80001c2c:	cb1ff0ef          	jal	800018dc <myproc>
    80001c30:	84aa                	mv	s1,a0
  sz = p->sz;
    80001c32:	652c                	ld	a1,72(a0)
  if (n > 0)
    80001c34:	01204c63          	bgtz	s2,80001c4c <growproc+0x2e>
  else if (n < 0)
    80001c38:	02094463          	bltz	s2,80001c60 <growproc+0x42>
  p->sz = sz;
    80001c3c:	e4ac                	sd	a1,72(s1)
  return 0;
    80001c3e:	4501                	li	a0,0
}
    80001c40:	60e2                	ld	ra,24(sp)
    80001c42:	6442                	ld	s0,16(sp)
    80001c44:	64a2                	ld	s1,8(sp)
    80001c46:	6902                	ld	s2,0(sp)
    80001c48:	6105                	addi	sp,sp,32
    80001c4a:	8082                	ret
    if ((sz = uvmalloc(p->pagetable, sz, sz + n, PTE_W)) == 0)
    80001c4c:	4691                	li	a3,4
    80001c4e:	00b90633          	add	a2,s2,a1
    80001c52:	6928                	ld	a0,80(a0)
    80001c54:	f10ff0ef          	jal	80001364 <uvmalloc>
    80001c58:	85aa                	mv	a1,a0
    80001c5a:	f16d                	bnez	a0,80001c3c <growproc+0x1e>
      return -1;
    80001c5c:	557d                	li	a0,-1
    80001c5e:	b7cd                	j	80001c40 <growproc+0x22>
    sz = uvmdealloc(p->pagetable, sz, sz + n);
    80001c60:	00b90633          	add	a2,s2,a1
    80001c64:	6928                	ld	a0,80(a0)
    80001c66:	ebaff0ef          	jal	80001320 <uvmdealloc>
    80001c6a:	85aa                	mv	a1,a0
    80001c6c:	bfc1                	j	80001c3c <growproc+0x1e>

0000000080001c6e <fork>:
{
    80001c6e:	7139                	addi	sp,sp,-64
    80001c70:	fc06                	sd	ra,56(sp)
    80001c72:	f822                	sd	s0,48(sp)
    80001c74:	f04a                	sd	s2,32(sp)
    80001c76:	e456                	sd	s5,8(sp)
    80001c78:	0080                	addi	s0,sp,64
  struct proc *p = myproc();
    80001c7a:	c63ff0ef          	jal	800018dc <myproc>
    80001c7e:	8aaa                	mv	s5,a0
  if ((np = allocproc()) == 0)
    80001c80:	e1fff0ef          	jal	80001a9e <allocproc>
    80001c84:	10050063          	beqz	a0,80001d84 <fork+0x116>
    80001c88:	ec4e                	sd	s3,24(sp)
    80001c8a:	89aa                	mv	s3,a0
  if (uvmcopy(p->pagetable, np->pagetable, p->sz) < 0)
    80001c8c:	048ab603          	ld	a2,72(s5)
    80001c90:	692c                	ld	a1,80(a0)
    80001c92:	050ab503          	ld	a0,80(s5)
    80001c96:	80fff0ef          	jal	800014a4 <uvmcopy>
    80001c9a:	04054a63          	bltz	a0,80001cee <fork+0x80>
    80001c9e:	f426                	sd	s1,40(sp)
    80001ca0:	e852                	sd	s4,16(sp)
  np->sz = p->sz;
    80001ca2:	048ab783          	ld	a5,72(s5)
    80001ca6:	04f9b423          	sd	a5,72(s3)
  *(np->trapframe) = *(p->trapframe);
    80001caa:	058ab683          	ld	a3,88(s5)
    80001cae:	87b6                	mv	a5,a3
    80001cb0:	0589b703          	ld	a4,88(s3)
    80001cb4:	12068693          	addi	a3,a3,288
    80001cb8:	0007b803          	ld	a6,0(a5) # 1000 <_entry-0x7ffff000>
    80001cbc:	6788                	ld	a0,8(a5)
    80001cbe:	6b8c                	ld	a1,16(a5)
    80001cc0:	6f90                	ld	a2,24(a5)
    80001cc2:	01073023          	sd	a6,0(a4)
    80001cc6:	e708                	sd	a0,8(a4)
    80001cc8:	eb0c                	sd	a1,16(a4)
    80001cca:	ef10                	sd	a2,24(a4)
    80001ccc:	02078793          	addi	a5,a5,32
    80001cd0:	02070713          	addi	a4,a4,32
    80001cd4:	fed792e3          	bne	a5,a3,80001cb8 <fork+0x4a>
  np->trapframe->a0 = 0;
    80001cd8:	0589b783          	ld	a5,88(s3)
    80001cdc:	0607b823          	sd	zero,112(a5)
  for (i = 0; i < NOFILE; i++)
    80001ce0:	0d0a8493          	addi	s1,s5,208
    80001ce4:	0d098913          	addi	s2,s3,208
    80001ce8:	150a8a13          	addi	s4,s5,336
    80001cec:	a831                	j	80001d08 <fork+0x9a>
    freeproc(np);
    80001cee:	854e                	mv	a0,s3
    80001cf0:	d5fff0ef          	jal	80001a4e <freeproc>
    release(&np->lock);
    80001cf4:	854e                	mv	a0,s3
    80001cf6:	f9dfe0ef          	jal	80000c92 <release>
    return -1;
    80001cfa:	597d                	li	s2,-1
    80001cfc:	69e2                	ld	s3,24(sp)
    80001cfe:	a8a5                	j	80001d76 <fork+0x108>
  for (i = 0; i < NOFILE; i++)
    80001d00:	04a1                	addi	s1,s1,8
    80001d02:	0921                	addi	s2,s2,8
    80001d04:	01448963          	beq	s1,s4,80001d16 <fork+0xa8>
    if (p->ofile[i])
    80001d08:	6088                	ld	a0,0(s1)
    80001d0a:	d97d                	beqz	a0,80001d00 <fork+0x92>
      np->ofile[i] = filedup(p->ofile[i]);
    80001d0c:	69e020ef          	jal	800043aa <filedup>
    80001d10:	00a93023          	sd	a0,0(s2)
    80001d14:	b7f5                	j	80001d00 <fork+0x92>
  np->cwd = idup(p->cwd);
    80001d16:	150ab503          	ld	a0,336(s5)
    80001d1a:	1cf010ef          	jal	800036e8 <idup>
    80001d1e:	14a9b823          	sd	a0,336(s3)
  safestrcpy(np->name, p->name, sizeof(p->name));
    80001d22:	4641                	li	a2,16
    80001d24:	158a8593          	addi	a1,s5,344
    80001d28:	15898513          	addi	a0,s3,344
    80001d2c:	8f4ff0ef          	jal	80000e20 <safestrcpy>
  pid = np->pid;
    80001d30:	0309a903          	lw	s2,48(s3)
  release(&np->lock);
    80001d34:	854e                	mv	a0,s3
    80001d36:	f5dfe0ef          	jal	80000c92 <release>
  acquire(&wait_lock);
    80001d3a:	0000e497          	auipc	s1,0xe
    80001d3e:	eae48493          	addi	s1,s1,-338 # 8000fbe8 <wait_lock>
    80001d42:	8526                	mv	a0,s1
    80001d44:	ebbfe0ef          	jal	80000bfe <acquire>
  np->parent = p;
    80001d48:	0359bc23          	sd	s5,56(s3)
  release(&wait_lock);
    80001d4c:	8526                	mv	a0,s1
    80001d4e:	f45fe0ef          	jal	80000c92 <release>
  acquire(&np->lock);
    80001d52:	854e                	mv	a0,s3
    80001d54:	eabfe0ef          	jal	80000bfe <acquire>
  np->state = RUNNABLE;
    80001d58:	478d                	li	a5,3
    80001d5a:	00f9ac23          	sw	a5,24(s3)
  np->Current_tickets = p->Original_tickets;
    80001d5e:	3c0aa783          	lw	a5,960(s5)
    80001d62:	3cf9a223          	sw	a5,964(s3)
  np->Original_tickets = p->Original_tickets;
    80001d66:	3cf9a023          	sw	a5,960(s3)
  release(&np->lock);
    80001d6a:	854e                	mv	a0,s3
    80001d6c:	f27fe0ef          	jal	80000c92 <release>
  return pid;
    80001d70:	74a2                	ld	s1,40(sp)
    80001d72:	69e2                	ld	s3,24(sp)
    80001d74:	6a42                	ld	s4,16(sp)
}
    80001d76:	854a                	mv	a0,s2
    80001d78:	70e2                	ld	ra,56(sp)
    80001d7a:	7442                	ld	s0,48(sp)
    80001d7c:	7902                	ld	s2,32(sp)
    80001d7e:	6aa2                	ld	s5,8(sp)
    80001d80:	6121                	addi	sp,sp,64
    80001d82:	8082                	ret
    return -1;
    80001d84:	597d                	li	s2,-1
    80001d86:	bfc5                	j	80001d76 <fork+0x108>

0000000080001d88 <scheduler>:
{
    80001d88:	d8010113          	addi	sp,sp,-640
    80001d8c:	26113c23          	sd	ra,632(sp)
    80001d90:	26813823          	sd	s0,624(sp)
    80001d94:	26913423          	sd	s1,616(sp)
    80001d98:	27213023          	sd	s2,608(sp)
    80001d9c:	25313c23          	sd	s3,600(sp)
    80001da0:	25413823          	sd	s4,592(sp)
    80001da4:	25513423          	sd	s5,584(sp)
    80001da8:	25613023          	sd	s6,576(sp)
    80001dac:	23713c23          	sd	s7,568(sp)
    80001db0:	23813823          	sd	s8,560(sp)
    80001db4:	23913423          	sd	s9,552(sp)
    80001db8:	23a13023          	sd	s10,544(sp)
    80001dbc:	21b13c23          	sd	s11,536(sp)
    80001dc0:	0500                	addi	s0,sp,640
    80001dc2:	8792                	mv	a5,tp
  int id = r_tp();
    80001dc4:	2781                	sext.w	a5,a5
  c->proc = 0;
    80001dc6:	00779693          	slli	a3,a5,0x7
    80001dca:	0000e717          	auipc	a4,0xe
    80001dce:	e0670713          	addi	a4,a4,-506 # 8000fbd0 <pid_lock>
    80001dd2:	9736                	add	a4,a4,a3
    80001dd4:	02073823          	sd	zero,48(a4)
        swtch(&c->context, &p->context);
    80001dd8:	0000e717          	auipc	a4,0xe
    80001ddc:	e3070713          	addi	a4,a4,-464 # 8000fc08 <cpus+0x8>
    80001de0:	9736                	add	a4,a4,a3
    80001de2:	d8e43423          	sd	a4,-632(s0)
        if (lp->state != RUNNABLE)
    80001de6:	4a0d                	li	s4,3
          lp->inq = 1;  // Move to high priority queue
    80001de8:	4b85                	li	s7,1
        c->proc = p;
    80001dea:	0000e717          	auipc	a4,0xe
    80001dee:	de670713          	addi	a4,a4,-538 # 8000fbd0 <pid_lock>
    80001df2:	00d707b3          	add	a5,a4,a3
    80001df6:	d8f43023          	sd	a5,-640(s0)
    80001dfa:	acf5                	j	800020f6 <scheduler+0x36e>
    80001dfc:	0000e497          	auipc	s1,0xe
    80001e00:	20448493          	addi	s1,s1,516 # 80010000 <proc>
    80001e04:	0001d997          	auipc	s3,0x1d
    80001e08:	7fc98993          	addi	s3,s3,2044 # 8001f600 <tickslock>
    80001e0c:	a801                	j	80001e1c <scheduler+0x94>
        release(&lp->lock);
    80001e0e:	854a                	mv	a0,s2
    80001e10:	e83fe0ef          	jal	80000c92 <release>
      for (int i = 0; i < NPROC; i++)
    80001e14:	3d848493          	addi	s1,s1,984
    80001e18:	03348263          	beq	s1,s3,80001e3c <scheduler+0xb4>
        acquire(&lp->lock);
    80001e1c:	8926                	mv	s2,s1
    80001e1e:	8526                	mv	a0,s1
    80001e20:	ddffe0ef          	jal	80000bfe <acquire>
        if (lp->state != RUNNABLE)
    80001e24:	4c9c                	lw	a5,24(s1)
    80001e26:	ff4784e3          	beq	a5,s4,80001e0e <scheduler+0x86>
          lp->inq = 1;  // Move to high priority queue
    80001e2a:	3d74a423          	sw	s7,968(s1)
          lp->curr_runtime = 0;  // Reset runtime
    80001e2e:	3c04a823          	sw	zero,976(s1)
          lp->Current_tickets = lp->Original_tickets;  // Restore tickets
    80001e32:	3c04a783          	lw	a5,960(s1)
    80001e36:	3cf4a223          	sw	a5,964(s1)
    80001e3a:	bfd1                	j	80001e0e <scheduler+0x86>
      boost_timer = 0;
    80001e3c:	00006797          	auipc	a5,0x6
    80001e40:	c6078793          	addi	a5,a5,-928 # 80007a9c <boost_timer.4>
    80001e44:	0007a023          	sw	zero,0(a5)
    80001e48:	acc1                	j	80002118 <scheduler+0x390>
        candidate_indices[candidate_count] = i;
    80001e4a:	002c1713          	slli	a4,s8,0x2
    80001e4e:	01b706b3          	add	a3,a4,s11
    80001e52:	0126a023          	sw	s2,0(a3)
        candidate_tickets[candidate_count] = lp->Current_tickets;
    80001e56:	976a                	add	a4,a4,s10
    80001e58:	c31c                	sw	a5,0(a4)
        total_tickets += lp->Current_tickets;
    80001e5a:	01978cbb          	addw	s9,a5,s9
        candidate_count++;
    80001e5e:	2c05                	addiw	s8,s8,1 # 1001 <_entry-0x7fffefff>
      release(&lp->lock);
    80001e60:	854e                	mv	a0,s3
    80001e62:	e31fe0ef          	jal	80000c92 <release>
    for (int i = 0; i < NPROC; i++)
    80001e66:	2905                	addiw	s2,s2,1
    80001e68:	3d848493          	addi	s1,s1,984
    80001e6c:	03690263          	beq	s2,s6,80001e90 <scheduler+0x108>
      acquire(&lp->lock);
    80001e70:	89a6                	mv	s3,s1
    80001e72:	8526                	mv	a0,s1
    80001e74:	d8bfe0ef          	jal	80000bfe <acquire>
      if (lp->state == RUNNABLE && lp->inq == 1 && lp->Current_tickets > 0)
    80001e78:	4c9c                	lw	a5,24(s1)
    80001e7a:	ff4793e3          	bne	a5,s4,80001e60 <scheduler+0xd8>
    80001e7e:	3c84a783          	lw	a5,968(s1)
    80001e82:	fd779fe3          	bne	a5,s7,80001e60 <scheduler+0xd8>
    80001e86:	3c44a783          	lw	a5,964(s1)
    80001e8a:	fcf040e3          	bgtz	a5,80001e4a <scheduler+0xc2>
    80001e8e:	bfc9                	j	80001e60 <scheduler+0xd8>
    if (candidate_count > 0 && total_tickets > 0)
    80001e90:	05805663          	blez	s8,80001edc <scheduler+0x154>
    80001e94:	05905463          	blez	s9,80001edc <scheduler+0x154>
      seed = (1103515245 * seed + 12345) & 0x7fffffff;
    80001e98:	00006697          	auipc	a3,0x6
    80001e9c:	b8c68693          	addi	a3,a3,-1140 # 80007a24 <seed.3>
    80001ea0:	429c                	lw	a5,0(a3)
    80001ea2:	41c65737          	lui	a4,0x41c65
    80001ea6:	e6d7071b          	addiw	a4,a4,-403 # 41c64e6d <_entry-0x3e39b193>
    80001eaa:	02f7073b          	mulw	a4,a4,a5
    80001eae:	678d                	lui	a5,0x3
    80001eb0:	0397879b          	addiw	a5,a5,57 # 3039 <_entry-0x7fffcfc7>
    80001eb4:	9fb9                	addw	a5,a5,a4
    80001eb6:	1786                	slli	a5,a5,0x21
    80001eb8:	9385                	srli	a5,a5,0x21
    80001eba:	c29c                	sw	a5,0(a3)
      int winning_ticket = (seed % total_tickets) + 1;
    80001ebc:	0397f7bb          	remuw	a5,a5,s9
    80001ec0:	0017861b          	addiw	a2,a5,1
      for (int j = 0; j < candidate_count; j++)
    80001ec4:	e9040693          	addi	a3,s0,-368
    80001ec8:	4781                	li	a5,0
      int ticket_sum = 0;
    80001eca:	4701                	li	a4,0
        ticket_sum += candidate_tickets[j];
    80001ecc:	428c                	lw	a1,0(a3)
    80001ece:	9f2d                	addw	a4,a4,a1
        if (ticket_sum >= winning_ticket)
    80001ed0:	00c75e63          	bge	a4,a2,80001eec <scheduler+0x164>
      for (int j = 0; j < candidate_count; j++)
    80001ed4:	2785                	addiw	a5,a5,1
    80001ed6:	0691                	addi	a3,a3,4
    80001ed8:	fefc1ae3          	bne	s8,a5,80001ecc <scheduler+0x144>
    for (int i = 0; i < NPROC; i++)
    80001edc:	69bd                	lui	s3,0xf
    80001ede:	60098993          	addi	s3,s3,1536 # f600 <_entry-0x7fff0a00>
    80001ee2:	99d6                	add	s3,s3,s5
      int ticket_sum = 0;
    80001ee4:	84d6                	mv	s1,s5
    int has_queue1_processes = 0;
    80001ee6:	4b01                	li	s6,0
    int need_ticket_refill = 0;
    80001ee8:	4c01                	li	s8,0
    80001eea:	a8c1                	j	80001fba <scheduler+0x232>
          winner_idx = candidate_indices[j];
    80001eec:	078a                	slli	a5,a5,0x2
    80001eee:	f9078793          	addi	a5,a5,-112
    80001ef2:	97a2                	add	a5,a5,s0
    80001ef4:	e007a983          	lw	s3,-512(a5)
      if (winner_idx >= 0)
    80001ef8:	fe09c2e3          	bltz	s3,80001edc <scheduler+0x154>
        struct proc *winner = &proc[winner_idx];
    80001efc:	3d800913          	li	s2,984
    80001f00:	03298933          	mul	s2,s3,s2
    80001f04:	0000e497          	auipc	s1,0xe
    80001f08:	0fc48493          	addi	s1,s1,252 # 80010000 <proc>
    80001f0c:	94ca                	add	s1,s1,s2
        acquire(&winner->lock);
    80001f0e:	8526                	mv	a0,s1
    80001f10:	ceffe0ef          	jal	80000bfe <acquire>
        if (winner->state == RUNNABLE && winner->inq == 1 && winner->Current_tickets > 0)
    80001f14:	4c9c                	lw	a5,24(s1)
    80001f16:	01478663          	beq	a5,s4,80001f22 <scheduler+0x19a>
        release(&winner->lock);
    80001f1a:	8526                	mv	a0,s1
    80001f1c:	d77fe0ef          	jal	80000c92 <release>
      if (found)
    80001f20:	bf75                	j	80001edc <scheduler+0x154>
        if (winner->state == RUNNABLE && winner->inq == 1 && winner->Current_tickets > 0)
    80001f22:	3c84a783          	lw	a5,968(s1)
    80001f26:	ff779ae3          	bne	a5,s7,80001f1a <scheduler+0x192>
    80001f2a:	3c44a783          	lw	a5,964(s1)
    80001f2e:	fef056e3          	blez	a5,80001f1a <scheduler+0x192>
          winner->state = RUNNING;
    80001f32:	0000e597          	auipc	a1,0xe
    80001f36:	0ce58593          	addi	a1,a1,206 # 80010000 <proc>
    80001f3a:	4791                	li	a5,4
    80001f3c:	cc9c                	sw	a5,24(s1)
          c->proc = winner;
    80001f3e:	d8043b03          	ld	s6,-640(s0)
    80001f42:	029b3823          	sd	s1,48(s6)
          swtch(&c->context, &winner->context);
    80001f46:	06090913          	addi	s2,s2,96
    80001f4a:	95ca                	add	a1,a1,s2
    80001f4c:	d8843503          	ld	a0,-632(s0)
    80001f50:	76c000ef          	jal	800026bc <swtch>
          c->proc = 0;
    80001f54:	020b3823          	sd	zero,48(s6)
          winner->time_slices++;
    80001f58:	3cc4a783          	lw	a5,972(s1)
    80001f5c:	2785                	addiw	a5,a5,1
    80001f5e:	3cf4a623          	sw	a5,972(s1)
          winner->curr_runtime++;
    80001f62:	3d04a783          	lw	a5,976(s1)
    80001f66:	2785                	addiw	a5,a5,1
    80001f68:	863e                	mv	a2,a5
    80001f6a:	3cf4a823          	sw	a5,976(s1)
          if (winner->Current_tickets > 0)
    80001f6e:	3c44a783          	lw	a5,964(s1)
    80001f72:	00f05563          	blez	a5,80001f7c <scheduler+0x1f4>
            winner->Current_tickets--;
    80001f76:	37fd                	addiw	a5,a5,-1
    80001f78:	3cf4a223          	sw	a5,964(s1)
          if (winner->curr_runtime >= TIME_LIMIT_1)
    80001f7c:	02c05063          	blez	a2,80001f9c <scheduler+0x214>
            winner->inq = 2;
    80001f80:	3d800793          	li	a5,984
    80001f84:	02f987b3          	mul	a5,s3,a5
    80001f88:	0000e717          	auipc	a4,0xe
    80001f8c:	07870713          	addi	a4,a4,120 # 80010000 <proc>
    80001f90:	97ba                	add	a5,a5,a4
    80001f92:	4709                	li	a4,2
    80001f94:	3ce7a423          	sw	a4,968(a5)
            winner->curr_runtime = 0;
    80001f98:	3c07a823          	sw	zero,976(a5)
        release(&winner->lock);
    80001f9c:	8526                	mv	a0,s1
    80001f9e:	cf5fe0ef          	jal	80000c92 <release>
      if (found)
    80001fa2:	aa91                	j	800020f6 <scheduler+0x36e>
          release(&lp->lock);
    80001fa4:	8526                	mv	a0,s1
    80001fa6:	cedfe0ef          	jal	80000c92 <release>
    if (need_ticket_refill && has_queue1_processes)
    80001faa:	a82d                	j	80001fe4 <scheduler+0x25c>
      release(&lp->lock);
    80001fac:	854a                	mv	a0,s2
    80001fae:	ce5fe0ef          	jal	80000c92 <release>
    for (int i = 0; i < NPROC; i++)
    80001fb2:	3d848493          	addi	s1,s1,984
    80001fb6:	03348363          	beq	s1,s3,80001fdc <scheduler+0x254>
      acquire(&lp->lock);
    80001fba:	8926                	mv	s2,s1
    80001fbc:	8526                	mv	a0,s1
    80001fbe:	c41fe0ef          	jal	80000bfe <acquire>
      if (lp->state == RUNNABLE && lp->inq == 1)
    80001fc2:	4c9c                	lw	a5,24(s1)
    80001fc4:	ff4794e3          	bne	a5,s4,80001fac <scheduler+0x224>
    80001fc8:	3c84a783          	lw	a5,968(s1)
    80001fcc:	ff7790e3          	bne	a5,s7,80001fac <scheduler+0x224>
        if (lp->Current_tickets == 0)
    80001fd0:	3c44a703          	lw	a4,964(s1)
    80001fd4:	fb61                	bnez	a4,80001fa4 <scheduler+0x21c>
        has_queue1_processes = 1;
    80001fd6:	8b3e                	mv	s6,a5
          need_ticket_refill = 1;
    80001fd8:	8c3e                	mv	s8,a5
    80001fda:	bfc9                	j	80001fac <scheduler+0x224>
    if (need_ticket_refill && has_queue1_processes)
    80001fdc:	000c0463          	beqz	s8,80001fe4 <scheduler+0x25c>
    80001fe0:	020b1863          	bnez	s6,80002010 <scheduler+0x288>
          need_ticket_refill = 1;
    80001fe4:	4981                	li	s3,0
      int idx = (last_idx + i) % NPROC;
    80001fe6:	00006c97          	auipc	s9,0x6
    80001fea:	ab2c8c93          	addi	s9,s9,-1358 # 80007a98 <last_idx.2>
    80001fee:	3d800c13          	li	s8,984
      p = &proc[idx];
    80001ff2:	0000eb17          	auipc	s6,0xe
    80001ff6:	00eb0b13          	addi	s6,s6,14 # 80010000 <proc>
      if (p->state == RUNNABLE && p->inq == 2)
    80001ffa:	4d89                	li	s11,2
    for (int i = 0; i < NPROC; i++)
    80001ffc:	04000d13          	li	s10,64
    80002000:	a091                	j	80002044 <scheduler+0x2bc>
        release(&lp->lock);
    80002002:	8526                	mv	a0,s1
    80002004:	c8ffe0ef          	jal	80000c92 <release>
      for (int i = 0; i < NPROC; i++)
    80002008:	3d8a8a93          	addi	s5,s5,984
    8000200c:	0f3a8563          	beq	s5,s3,800020f6 <scheduler+0x36e>
        acquire(&lp->lock);
    80002010:	84d6                	mv	s1,s5
    80002012:	8556                	mv	a0,s5
    80002014:	bebfe0ef          	jal	80000bfe <acquire>
        if (lp->state == RUNNABLE && lp->inq == 1)
    80002018:	018aa783          	lw	a5,24(s5)
    8000201c:	ff4793e3          	bne	a5,s4,80002002 <scheduler+0x27a>
    80002020:	3c8aa783          	lw	a5,968(s5)
    80002024:	fd779fe3          	bne	a5,s7,80002002 <scheduler+0x27a>
          lp->Current_tickets = lp->Original_tickets;
    80002028:	3c0aa783          	lw	a5,960(s5)
    8000202c:	3cfaa223          	sw	a5,964(s5)
    80002030:	bfc9                	j	80002002 <scheduler+0x27a>
          p->inq = 1;
    80002032:	3d79a423          	sw	s7,968(s3)
    80002036:	a061                	j	800020be <scheduler+0x336>
      release(&p->lock);
    80002038:	854a                	mv	a0,s2
    8000203a:	c59fe0ef          	jal	80000c92 <release>
    for (int i = 0; i < NPROC; i++)
    8000203e:	2985                	addiw	s3,s3,1
    80002040:	0fa98b63          	beq	s3,s10,80002136 <scheduler+0x3ae>
      int idx = (last_idx + i) % NPROC;
    80002044:	000ca483          	lw	s1,0(s9)
    80002048:	013484bb          	addw	s1,s1,s3
    8000204c:	41f4d79b          	sraiw	a5,s1,0x1f
    80002050:	01a7d79b          	srliw	a5,a5,0x1a
    80002054:	9cbd                	addw	s1,s1,a5
    80002056:	03f4f493          	andi	s1,s1,63
    8000205a:	9c9d                	subw	s1,s1,a5
      p = &proc[idx];
    8000205c:	03848ab3          	mul	s5,s1,s8
    80002060:	016a8933          	add	s2,s5,s6
      acquire(&p->lock);
    80002064:	854a                	mv	a0,s2
    80002066:	b99fe0ef          	jal	80000bfe <acquire>
      if (p->state == RUNNABLE && p->inq == 2)
    8000206a:	01892783          	lw	a5,24(s2)
    8000206e:	fd4795e3          	bne	a5,s4,80002038 <scheduler+0x2b0>
    80002072:	3c892783          	lw	a5,968(s2)
    80002076:	fdb791e3          	bne	a5,s11,80002038 <scheduler+0x2b0>
        p->state = RUNNING;
    8000207a:	0000e597          	auipc	a1,0xe
    8000207e:	f8658593          	addi	a1,a1,-122 # 80010000 <proc>
    80002082:	3d800993          	li	s3,984
    80002086:	033489b3          	mul	s3,s1,s3
    8000208a:	99ae                	add	s3,s3,a1
    8000208c:	4791                	li	a5,4
    8000208e:	00f9ac23          	sw	a5,24(s3)
        c->proc = p;
    80002092:	d8043b03          	ld	s6,-640(s0)
    80002096:	032b3823          	sd	s2,48(s6)
        swtch(&c->context, &p->context);
    8000209a:	060a8a93          	addi	s5,s5,96
    8000209e:	95d6                	add	a1,a1,s5
    800020a0:	d8843503          	ld	a0,-632(s0)
    800020a4:	618000ef          	jal	800026bc <swtch>
        c->proc = 0;
    800020a8:	020b3823          	sd	zero,48(s6)
        p->time_slices++;
    800020ac:	3cc9a783          	lw	a5,972(s3)
    800020b0:	2785                	addiw	a5,a5,1
    800020b2:	3cf9a623          	sw	a5,972(s3)
        if (p->curr_runtime < TIME_LIMIT_2)
    800020b6:	3d09a783          	lw	a5,976(s3)
    800020ba:	f6f05ce3          	blez	a5,80002032 <scheduler+0x2aa>
        p->curr_runtime = 0;
    800020be:	3d800713          	li	a4,984
    800020c2:	02e48733          	mul	a4,s1,a4
    800020c6:	0000e797          	auipc	a5,0xe
    800020ca:	f3a78793          	addi	a5,a5,-198 # 80010000 <proc>
    800020ce:	97ba                	add	a5,a5,a4
    800020d0:	3c07a823          	sw	zero,976(a5)
        last_idx = (idx + 1) % NPROC;
    800020d4:	2485                	addiw	s1,s1,1
    800020d6:	41f4d71b          	sraiw	a4,s1,0x1f
    800020da:	01a7571b          	srliw	a4,a4,0x1a
    800020de:	009707bb          	addw	a5,a4,s1
    800020e2:	03f7f793          	andi	a5,a5,63
    800020e6:	9f99                	subw	a5,a5,a4
    800020e8:	00006717          	auipc	a4,0x6
    800020ec:	9af72823          	sw	a5,-1616(a4) # 80007a98 <last_idx.2>
        release(&p->lock);
    800020f0:	854a                	mv	a0,s2
    800020f2:	ba1fe0ef          	jal	80000c92 <release>
  asm volatile("csrr %0, sstatus" : "=r" (x) );
    800020f6:	100027f3          	csrr	a5,sstatus
  w_sstatus(r_sstatus() | SSTATUS_SIE);
    800020fa:	0027e793          	ori	a5,a5,2
  asm volatile("csrw sstatus, %0" : : "r" (x));
    800020fe:	10079073          	csrw	sstatus,a5
    boost_timer++;
    80002102:	00006717          	auipc	a4,0x6
    80002106:	99a70713          	addi	a4,a4,-1638 # 80007a9c <boost_timer.4>
    8000210a:	431c                	lw	a5,0(a4)
    8000210c:	2785                	addiw	a5,a5,1
    8000210e:	c31c                	sw	a5,0(a4)
    if (boost_timer >= BOOST_INTERVAL)
    80002110:	03f00713          	li	a4,63
    80002114:	cef744e3          	blt	a4,a5,80001dfc <scheduler+0x74>
    for (int i = 0; i < NPROC; i++)
    80002118:	0000ea97          	auipc	s5,0xe
    8000211c:	ee8a8a93          	addi	s5,s5,-280 # 80010000 <proc>
{
    80002120:	84d6                	mv	s1,s5
    80002122:	4901                	li	s2,0
    80002124:	4c01                	li	s8,0
    80002126:	4c81                	li	s9,0
        candidate_indices[candidate_count] = i;
    80002128:	d9040d93          	addi	s11,s0,-624
        candidate_tickets[candidate_count] = lp->Current_tickets;
    8000212c:	e9040d13          	addi	s10,s0,-368
    for (int i = 0; i < NPROC; i++)
    80002130:	04000b13          	li	s6,64
    80002134:	bb35                	j	80001e70 <scheduler+0xe8>
  asm volatile("csrr %0, sstatus" : "=r" (x) );
    80002136:	100027f3          	csrr	a5,sstatus
  w_sstatus(r_sstatus() | SSTATUS_SIE);
    8000213a:	0027e793          	ori	a5,a5,2
  asm volatile("csrw sstatus, %0" : : "r" (x));
    8000213e:	10079073          	csrw	sstatus,a5
      asm volatile("wfi");
    80002142:	10500073          	wfi
    80002146:	bf45                	j	800020f6 <scheduler+0x36e>

0000000080002148 <sched>:
{
    80002148:	7179                	addi	sp,sp,-48
    8000214a:	f406                	sd	ra,40(sp)
    8000214c:	f022                	sd	s0,32(sp)
    8000214e:	ec26                	sd	s1,24(sp)
    80002150:	e84a                	sd	s2,16(sp)
    80002152:	e44e                	sd	s3,8(sp)
    80002154:	1800                	addi	s0,sp,48
  struct proc *p = myproc();
    80002156:	f86ff0ef          	jal	800018dc <myproc>
    8000215a:	84aa                	mv	s1,a0
  if (!holding(&p->lock))
    8000215c:	a39fe0ef          	jal	80000b94 <holding>
    80002160:	c92d                	beqz	a0,800021d2 <sched+0x8a>
  asm volatile("mv %0, tp" : "=r" (x) );
    80002162:	8792                	mv	a5,tp
  if (mycpu()->noff != 1)
    80002164:	2781                	sext.w	a5,a5
    80002166:	079e                	slli	a5,a5,0x7
    80002168:	0000e717          	auipc	a4,0xe
    8000216c:	a6870713          	addi	a4,a4,-1432 # 8000fbd0 <pid_lock>
    80002170:	97ba                	add	a5,a5,a4
    80002172:	0a87a703          	lw	a4,168(a5)
    80002176:	4785                	li	a5,1
    80002178:	06f71363          	bne	a4,a5,800021de <sched+0x96>
  if (p->state == RUNNING)
    8000217c:	4c98                	lw	a4,24(s1)
    8000217e:	4791                	li	a5,4
    80002180:	06f70563          	beq	a4,a5,800021ea <sched+0xa2>
  asm volatile("csrr %0, sstatus" : "=r" (x) );
    80002184:	100027f3          	csrr	a5,sstatus
  return (x & SSTATUS_SIE) != 0;
    80002188:	8b89                	andi	a5,a5,2
  if (intr_get())
    8000218a:	e7b5                	bnez	a5,800021f6 <sched+0xae>
  asm volatile("mv %0, tp" : "=r" (x) );
    8000218c:	8792                	mv	a5,tp
  intena = mycpu()->intena;
    8000218e:	0000e917          	auipc	s2,0xe
    80002192:	a4290913          	addi	s2,s2,-1470 # 8000fbd0 <pid_lock>
    80002196:	2781                	sext.w	a5,a5
    80002198:	079e                	slli	a5,a5,0x7
    8000219a:	97ca                	add	a5,a5,s2
    8000219c:	0ac7a983          	lw	s3,172(a5)
    800021a0:	8792                	mv	a5,tp
  swtch(&p->context, &mycpu()->context);
    800021a2:	2781                	sext.w	a5,a5
    800021a4:	079e                	slli	a5,a5,0x7
    800021a6:	0000e597          	auipc	a1,0xe
    800021aa:	a6258593          	addi	a1,a1,-1438 # 8000fc08 <cpus+0x8>
    800021ae:	95be                	add	a1,a1,a5
    800021b0:	06048513          	addi	a0,s1,96
    800021b4:	508000ef          	jal	800026bc <swtch>
    800021b8:	8792                	mv	a5,tp
  mycpu()->intena = intena;
    800021ba:	2781                	sext.w	a5,a5
    800021bc:	079e                	slli	a5,a5,0x7
    800021be:	993e                	add	s2,s2,a5
    800021c0:	0b392623          	sw	s3,172(s2)
}
    800021c4:	70a2                	ld	ra,40(sp)
    800021c6:	7402                	ld	s0,32(sp)
    800021c8:	64e2                	ld	s1,24(sp)
    800021ca:	6942                	ld	s2,16(sp)
    800021cc:	69a2                	ld	s3,8(sp)
    800021ce:	6145                	addi	sp,sp,48
    800021d0:	8082                	ret
    panic("sched p->lock");
    800021d2:	00005517          	auipc	a0,0x5
    800021d6:	06650513          	addi	a0,a0,102 # 80007238 <etext+0x238>
    800021da:	dc4fe0ef          	jal	8000079e <panic>
    panic("sched locks");
    800021de:	00005517          	auipc	a0,0x5
    800021e2:	06a50513          	addi	a0,a0,106 # 80007248 <etext+0x248>
    800021e6:	db8fe0ef          	jal	8000079e <panic>
    panic("sched running");
    800021ea:	00005517          	auipc	a0,0x5
    800021ee:	06e50513          	addi	a0,a0,110 # 80007258 <etext+0x258>
    800021f2:	dacfe0ef          	jal	8000079e <panic>
    panic("sched interruptible");
    800021f6:	00005517          	auipc	a0,0x5
    800021fa:	07250513          	addi	a0,a0,114 # 80007268 <etext+0x268>
    800021fe:	da0fe0ef          	jal	8000079e <panic>

0000000080002202 <yield>:
{
    80002202:	1101                	addi	sp,sp,-32
    80002204:	ec06                	sd	ra,24(sp)
    80002206:	e822                	sd	s0,16(sp)
    80002208:	e426                	sd	s1,8(sp)
    8000220a:	1000                	addi	s0,sp,32
  struct proc *p = myproc();
    8000220c:	ed0ff0ef          	jal	800018dc <myproc>
    80002210:	84aa                	mv	s1,a0
  acquire(&p->lock);
    80002212:	9edfe0ef          	jal	80000bfe <acquire>
  p->state = RUNNABLE;
    80002216:	478d                	li	a5,3
    80002218:	cc9c                	sw	a5,24(s1)
  sched();
    8000221a:	f2fff0ef          	jal	80002148 <sched>
  release(&p->lock);
    8000221e:	8526                	mv	a0,s1
    80002220:	a73fe0ef          	jal	80000c92 <release>
}
    80002224:	60e2                	ld	ra,24(sp)
    80002226:	6442                	ld	s0,16(sp)
    80002228:	64a2                	ld	s1,8(sp)
    8000222a:	6105                	addi	sp,sp,32
    8000222c:	8082                	ret

000000008000222e <sleep>:

// Atomically release lock and sleep on chan.
// Reacquires lock when awakened.
void sleep(void *chan, struct spinlock *lk)
{
    8000222e:	7179                	addi	sp,sp,-48
    80002230:	f406                	sd	ra,40(sp)
    80002232:	f022                	sd	s0,32(sp)
    80002234:	ec26                	sd	s1,24(sp)
    80002236:	e84a                	sd	s2,16(sp)
    80002238:	e44e                	sd	s3,8(sp)
    8000223a:	1800                	addi	s0,sp,48
    8000223c:	89aa                	mv	s3,a0
    8000223e:	892e                	mv	s2,a1
  struct proc *p = myproc();
    80002240:	e9cff0ef          	jal	800018dc <myproc>
    80002244:	84aa                	mv	s1,a0
  // Once we hold p->lock, we can be
  // guaranteed that we won't miss any wakeup
  // (wakeup locks p->lock),
  // so it's okay to release lk.

  acquire(&p->lock); // DOC: sleeplock1
    80002246:	9b9fe0ef          	jal	80000bfe <acquire>
  release(lk);
    8000224a:	854a                	mv	a0,s2
    8000224c:	a47fe0ef          	jal	80000c92 <release>

  // Go to sleep.
  p->chan = chan;
    80002250:	0334b023          	sd	s3,32(s1)
  p->state = SLEEPING;
    80002254:	4789                	li	a5,2
    80002256:	cc9c                	sw	a5,24(s1)

  sched();
    80002258:	ef1ff0ef          	jal	80002148 <sched>

  // Tidy up.
  p->chan = 0;
    8000225c:	0204b023          	sd	zero,32(s1)

  // Reacquire original lock.
  release(&p->lock);
    80002260:	8526                	mv	a0,s1
    80002262:	a31fe0ef          	jal	80000c92 <release>
  acquire(lk);
    80002266:	854a                	mv	a0,s2
    80002268:	997fe0ef          	jal	80000bfe <acquire>
}
    8000226c:	70a2                	ld	ra,40(sp)
    8000226e:	7402                	ld	s0,32(sp)
    80002270:	64e2                	ld	s1,24(sp)
    80002272:	6942                	ld	s2,16(sp)
    80002274:	69a2                	ld	s3,8(sp)
    80002276:	6145                	addi	sp,sp,48
    80002278:	8082                	ret

000000008000227a <wakeup>:

// Wake up all processes sleeping on chan.
// Must be called without any p->lock.
void wakeup(void *chan)
{
    8000227a:	7139                	addi	sp,sp,-64
    8000227c:	fc06                	sd	ra,56(sp)
    8000227e:	f822                	sd	s0,48(sp)
    80002280:	f426                	sd	s1,40(sp)
    80002282:	f04a                	sd	s2,32(sp)
    80002284:	ec4e                	sd	s3,24(sp)
    80002286:	e852                	sd	s4,16(sp)
    80002288:	e456                	sd	s5,8(sp)
    8000228a:	0080                	addi	s0,sp,64
    8000228c:	8a2a                	mv	s4,a0
  struct proc *p;

  for (p = proc; p < &proc[NPROC]; p++)
    8000228e:	0000e497          	auipc	s1,0xe
    80002292:	d7248493          	addi	s1,s1,-654 # 80010000 <proc>
  {
    if (p != myproc())
    {
      acquire(&p->lock);
      if (p->state == SLEEPING && p->chan == chan)
    80002296:	4989                	li	s3,2
      {
        p->state = RUNNABLE;
    80002298:	4a8d                	li	s5,3
  for (p = proc; p < &proc[NPROC]; p++)
    8000229a:	0001d917          	auipc	s2,0x1d
    8000229e:	36690913          	addi	s2,s2,870 # 8001f600 <tickslock>
    800022a2:	a801                	j	800022b2 <wakeup+0x38>
      }
      release(&p->lock);
    800022a4:	8526                	mv	a0,s1
    800022a6:	9edfe0ef          	jal	80000c92 <release>
  for (p = proc; p < &proc[NPROC]; p++)
    800022aa:	3d848493          	addi	s1,s1,984
    800022ae:	03248263          	beq	s1,s2,800022d2 <wakeup+0x58>
    if (p != myproc())
    800022b2:	e2aff0ef          	jal	800018dc <myproc>
    800022b6:	fea48ae3          	beq	s1,a0,800022aa <wakeup+0x30>
      acquire(&p->lock);
    800022ba:	8526                	mv	a0,s1
    800022bc:	943fe0ef          	jal	80000bfe <acquire>
      if (p->state == SLEEPING && p->chan == chan)
    800022c0:	4c9c                	lw	a5,24(s1)
    800022c2:	ff3791e3          	bne	a5,s3,800022a4 <wakeup+0x2a>
    800022c6:	709c                	ld	a5,32(s1)
    800022c8:	fd479ee3          	bne	a5,s4,800022a4 <wakeup+0x2a>
        p->state = RUNNABLE;
    800022cc:	0154ac23          	sw	s5,24(s1)
    800022d0:	bfd1                	j	800022a4 <wakeup+0x2a>
    }
  }
}
    800022d2:	70e2                	ld	ra,56(sp)
    800022d4:	7442                	ld	s0,48(sp)
    800022d6:	74a2                	ld	s1,40(sp)
    800022d8:	7902                	ld	s2,32(sp)
    800022da:	69e2                	ld	s3,24(sp)
    800022dc:	6a42                	ld	s4,16(sp)
    800022de:	6aa2                	ld	s5,8(sp)
    800022e0:	6121                	addi	sp,sp,64
    800022e2:	8082                	ret

00000000800022e4 <reparent>:
{
    800022e4:	7179                	addi	sp,sp,-48
    800022e6:	f406                	sd	ra,40(sp)
    800022e8:	f022                	sd	s0,32(sp)
    800022ea:	ec26                	sd	s1,24(sp)
    800022ec:	e84a                	sd	s2,16(sp)
    800022ee:	e44e                	sd	s3,8(sp)
    800022f0:	e052                	sd	s4,0(sp)
    800022f2:	1800                	addi	s0,sp,48
    800022f4:	892a                	mv	s2,a0
  for (pp = proc; pp < &proc[NPROC]; pp++)
    800022f6:	0000e497          	auipc	s1,0xe
    800022fa:	d0a48493          	addi	s1,s1,-758 # 80010000 <proc>
      pp->parent = initproc;
    800022fe:	00005a17          	auipc	s4,0x5
    80002302:	7a2a0a13          	addi	s4,s4,1954 # 80007aa0 <initproc>
  for (pp = proc; pp < &proc[NPROC]; pp++)
    80002306:	0001d997          	auipc	s3,0x1d
    8000230a:	2fa98993          	addi	s3,s3,762 # 8001f600 <tickslock>
    8000230e:	a029                	j	80002318 <reparent+0x34>
    80002310:	3d848493          	addi	s1,s1,984
    80002314:	01348b63          	beq	s1,s3,8000232a <reparent+0x46>
    if (pp->parent == p)
    80002318:	7c9c                	ld	a5,56(s1)
    8000231a:	ff279be3          	bne	a5,s2,80002310 <reparent+0x2c>
      pp->parent = initproc;
    8000231e:	000a3503          	ld	a0,0(s4)
    80002322:	fc88                	sd	a0,56(s1)
      wakeup(initproc);
    80002324:	f57ff0ef          	jal	8000227a <wakeup>
    80002328:	b7e5                	j	80002310 <reparent+0x2c>
}
    8000232a:	70a2                	ld	ra,40(sp)
    8000232c:	7402                	ld	s0,32(sp)
    8000232e:	64e2                	ld	s1,24(sp)
    80002330:	6942                	ld	s2,16(sp)
    80002332:	69a2                	ld	s3,8(sp)
    80002334:	6a02                	ld	s4,0(sp)
    80002336:	6145                	addi	sp,sp,48
    80002338:	8082                	ret

000000008000233a <exit>:
{
    8000233a:	7179                	addi	sp,sp,-48
    8000233c:	f406                	sd	ra,40(sp)
    8000233e:	f022                	sd	s0,32(sp)
    80002340:	ec26                	sd	s1,24(sp)
    80002342:	e84a                	sd	s2,16(sp)
    80002344:	e44e                	sd	s3,8(sp)
    80002346:	e052                	sd	s4,0(sp)
    80002348:	1800                	addi	s0,sp,48
    8000234a:	8a2a                	mv	s4,a0
  struct proc *p = myproc();
    8000234c:	d90ff0ef          	jal	800018dc <myproc>
    80002350:	89aa                	mv	s3,a0
  if (p == initproc)
    80002352:	00005797          	auipc	a5,0x5
    80002356:	74e7b783          	ld	a5,1870(a5) # 80007aa0 <initproc>
    8000235a:	0d050493          	addi	s1,a0,208
    8000235e:	15050913          	addi	s2,a0,336
    80002362:	00a79b63          	bne	a5,a0,80002378 <exit+0x3e>
    panic("init exiting");
    80002366:	00005517          	auipc	a0,0x5
    8000236a:	f1a50513          	addi	a0,a0,-230 # 80007280 <etext+0x280>
    8000236e:	c30fe0ef          	jal	8000079e <panic>
  for (int fd = 0; fd < NOFILE; fd++)
    80002372:	04a1                	addi	s1,s1,8
    80002374:	01248963          	beq	s1,s2,80002386 <exit+0x4c>
    if (p->ofile[fd])
    80002378:	6088                	ld	a0,0(s1)
    8000237a:	dd65                	beqz	a0,80002372 <exit+0x38>
      fileclose(f);
    8000237c:	074020ef          	jal	800043f0 <fileclose>
      p->ofile[fd] = 0;
    80002380:	0004b023          	sd	zero,0(s1)
    80002384:	b7fd                	j	80002372 <exit+0x38>
  begin_op();
    80002386:	44b010ef          	jal	80003fd0 <begin_op>
  iput(p->cwd);
    8000238a:	1509b503          	ld	a0,336(s3)
    8000238e:	512010ef          	jal	800038a0 <iput>
  end_op();
    80002392:	4a9010ef          	jal	8000403a <end_op>
  p->cwd = 0;
    80002396:	1409b823          	sd	zero,336(s3)
  acquire(&wait_lock);
    8000239a:	0000e497          	auipc	s1,0xe
    8000239e:	84e48493          	addi	s1,s1,-1970 # 8000fbe8 <wait_lock>
    800023a2:	8526                	mv	a0,s1
    800023a4:	85bfe0ef          	jal	80000bfe <acquire>
  reparent(p);
    800023a8:	854e                	mv	a0,s3
    800023aa:	f3bff0ef          	jal	800022e4 <reparent>
  wakeup(p->parent);
    800023ae:	0389b503          	ld	a0,56(s3)
    800023b2:	ec9ff0ef          	jal	8000227a <wakeup>
  acquire(&p->lock);
    800023b6:	854e                	mv	a0,s3
    800023b8:	847fe0ef          	jal	80000bfe <acquire>
  p->xstate = status;
    800023bc:	0349a623          	sw	s4,44(s3)
  p->state = ZOMBIE;
    800023c0:	4795                	li	a5,5
    800023c2:	00f9ac23          	sw	a5,24(s3)
  release(&wait_lock);
    800023c6:	8526                	mv	a0,s1
    800023c8:	8cbfe0ef          	jal	80000c92 <release>
  sched();
    800023cc:	d7dff0ef          	jal	80002148 <sched>
  panic("zombie exit");
    800023d0:	00005517          	auipc	a0,0x5
    800023d4:	ec050513          	addi	a0,a0,-320 # 80007290 <etext+0x290>
    800023d8:	bc6fe0ef          	jal	8000079e <panic>

00000000800023dc <kill>:

// Kill the process with the given pid.
// The victim won't exit until it tries to return
// to user space (see usertrap() in trap.c).
int kill(int pid)
{
    800023dc:	7179                	addi	sp,sp,-48
    800023de:	f406                	sd	ra,40(sp)
    800023e0:	f022                	sd	s0,32(sp)
    800023e2:	ec26                	sd	s1,24(sp)
    800023e4:	e84a                	sd	s2,16(sp)
    800023e6:	e44e                	sd	s3,8(sp)
    800023e8:	1800                	addi	s0,sp,48
    800023ea:	892a                	mv	s2,a0
  struct proc *p;

  for (p = proc; p < &proc[NPROC]; p++)
    800023ec:	0000e497          	auipc	s1,0xe
    800023f0:	c1448493          	addi	s1,s1,-1004 # 80010000 <proc>
    800023f4:	0001d997          	auipc	s3,0x1d
    800023f8:	20c98993          	addi	s3,s3,524 # 8001f600 <tickslock>
  {
    acquire(&p->lock);
    800023fc:	8526                	mv	a0,s1
    800023fe:	801fe0ef          	jal	80000bfe <acquire>
    if (p->pid == pid)
    80002402:	589c                	lw	a5,48(s1)
    80002404:	01278b63          	beq	a5,s2,8000241a <kill+0x3e>
        p->state = RUNNABLE;
      }
      release(&p->lock);
      return 0;
    }
    release(&p->lock);
    80002408:	8526                	mv	a0,s1
    8000240a:	889fe0ef          	jal	80000c92 <release>
  for (p = proc; p < &proc[NPROC]; p++)
    8000240e:	3d848493          	addi	s1,s1,984
    80002412:	ff3495e3          	bne	s1,s3,800023fc <kill+0x20>
  }
  return -1;
    80002416:	557d                	li	a0,-1
    80002418:	a819                	j	8000242e <kill+0x52>
      p->killed = 1;
    8000241a:	4785                	li	a5,1
    8000241c:	d49c                	sw	a5,40(s1)
      if (p->state == SLEEPING)
    8000241e:	4c98                	lw	a4,24(s1)
    80002420:	4789                	li	a5,2
    80002422:	00f70d63          	beq	a4,a5,8000243c <kill+0x60>
      release(&p->lock);
    80002426:	8526                	mv	a0,s1
    80002428:	86bfe0ef          	jal	80000c92 <release>
      return 0;
    8000242c:	4501                	li	a0,0
}
    8000242e:	70a2                	ld	ra,40(sp)
    80002430:	7402                	ld	s0,32(sp)
    80002432:	64e2                	ld	s1,24(sp)
    80002434:	6942                	ld	s2,16(sp)
    80002436:	69a2                	ld	s3,8(sp)
    80002438:	6145                	addi	sp,sp,48
    8000243a:	8082                	ret
        p->state = RUNNABLE;
    8000243c:	478d                	li	a5,3
    8000243e:	cc9c                	sw	a5,24(s1)
    80002440:	b7dd                	j	80002426 <kill+0x4a>

0000000080002442 <setkilled>:

void setkilled(struct proc *p)
{
    80002442:	1101                	addi	sp,sp,-32
    80002444:	ec06                	sd	ra,24(sp)
    80002446:	e822                	sd	s0,16(sp)
    80002448:	e426                	sd	s1,8(sp)
    8000244a:	1000                	addi	s0,sp,32
    8000244c:	84aa                	mv	s1,a0
  acquire(&p->lock);
    8000244e:	fb0fe0ef          	jal	80000bfe <acquire>
  p->killed = 1;
    80002452:	4785                	li	a5,1
    80002454:	d49c                	sw	a5,40(s1)
  release(&p->lock);
    80002456:	8526                	mv	a0,s1
    80002458:	83bfe0ef          	jal	80000c92 <release>
}
    8000245c:	60e2                	ld	ra,24(sp)
    8000245e:	6442                	ld	s0,16(sp)
    80002460:	64a2                	ld	s1,8(sp)
    80002462:	6105                	addi	sp,sp,32
    80002464:	8082                	ret

0000000080002466 <killed>:

int killed(struct proc *p)
{
    80002466:	1101                	addi	sp,sp,-32
    80002468:	ec06                	sd	ra,24(sp)
    8000246a:	e822                	sd	s0,16(sp)
    8000246c:	e426                	sd	s1,8(sp)
    8000246e:	e04a                	sd	s2,0(sp)
    80002470:	1000                	addi	s0,sp,32
    80002472:	84aa                	mv	s1,a0
  int k;

  acquire(&p->lock);
    80002474:	f8afe0ef          	jal	80000bfe <acquire>
  k = p->killed;
    80002478:	0284a903          	lw	s2,40(s1)
  release(&p->lock);
    8000247c:	8526                	mv	a0,s1
    8000247e:	815fe0ef          	jal	80000c92 <release>
  return k;
}
    80002482:	854a                	mv	a0,s2
    80002484:	60e2                	ld	ra,24(sp)
    80002486:	6442                	ld	s0,16(sp)
    80002488:	64a2                	ld	s1,8(sp)
    8000248a:	6902                	ld	s2,0(sp)
    8000248c:	6105                	addi	sp,sp,32
    8000248e:	8082                	ret

0000000080002490 <wait>:
{
    80002490:	715d                	addi	sp,sp,-80
    80002492:	e486                	sd	ra,72(sp)
    80002494:	e0a2                	sd	s0,64(sp)
    80002496:	fc26                	sd	s1,56(sp)
    80002498:	f84a                	sd	s2,48(sp)
    8000249a:	f44e                	sd	s3,40(sp)
    8000249c:	f052                	sd	s4,32(sp)
    8000249e:	ec56                	sd	s5,24(sp)
    800024a0:	e85a                	sd	s6,16(sp)
    800024a2:	e45e                	sd	s7,8(sp)
    800024a4:	0880                	addi	s0,sp,80
    800024a6:	8b2a                	mv	s6,a0
  struct proc *p = myproc();
    800024a8:	c34ff0ef          	jal	800018dc <myproc>
    800024ac:	892a                	mv	s2,a0
  acquire(&wait_lock);
    800024ae:	0000d517          	auipc	a0,0xd
    800024b2:	73a50513          	addi	a0,a0,1850 # 8000fbe8 <wait_lock>
    800024b6:	f48fe0ef          	jal	80000bfe <acquire>
        if (pp->state == ZOMBIE)
    800024ba:	4a15                	li	s4,5
        havekids = 1;
    800024bc:	4a85                	li	s5,1
    for (pp = proc; pp < &proc[NPROC]; pp++)
    800024be:	0001d997          	auipc	s3,0x1d
    800024c2:	14298993          	addi	s3,s3,322 # 8001f600 <tickslock>
    sleep(p, &wait_lock); // DOC: wait-sleep
    800024c6:	0000db97          	auipc	s7,0xd
    800024ca:	722b8b93          	addi	s7,s7,1826 # 8000fbe8 <wait_lock>
    800024ce:	a869                	j	80002568 <wait+0xd8>
          pid = pp->pid;
    800024d0:	0304a983          	lw	s3,48(s1)
          if (addr != 0 && copyout(p->pagetable, addr, (char *)&pp->xstate,
    800024d4:	000b0c63          	beqz	s6,800024ec <wait+0x5c>
    800024d8:	4691                	li	a3,4
    800024da:	02c48613          	addi	a2,s1,44
    800024de:	85da                	mv	a1,s6
    800024e0:	05093503          	ld	a0,80(s2)
    800024e4:	8a0ff0ef          	jal	80001584 <copyout>
    800024e8:	02054a63          	bltz	a0,8000251c <wait+0x8c>
          freeproc(pp);
    800024ec:	8526                	mv	a0,s1
    800024ee:	d60ff0ef          	jal	80001a4e <freeproc>
          release(&pp->lock);
    800024f2:	8526                	mv	a0,s1
    800024f4:	f9efe0ef          	jal	80000c92 <release>
          release(&wait_lock);
    800024f8:	0000d517          	auipc	a0,0xd
    800024fc:	6f050513          	addi	a0,a0,1776 # 8000fbe8 <wait_lock>
    80002500:	f92fe0ef          	jal	80000c92 <release>
}
    80002504:	854e                	mv	a0,s3
    80002506:	60a6                	ld	ra,72(sp)
    80002508:	6406                	ld	s0,64(sp)
    8000250a:	74e2                	ld	s1,56(sp)
    8000250c:	7942                	ld	s2,48(sp)
    8000250e:	79a2                	ld	s3,40(sp)
    80002510:	7a02                	ld	s4,32(sp)
    80002512:	6ae2                	ld	s5,24(sp)
    80002514:	6b42                	ld	s6,16(sp)
    80002516:	6ba2                	ld	s7,8(sp)
    80002518:	6161                	addi	sp,sp,80
    8000251a:	8082                	ret
            release(&pp->lock);
    8000251c:	8526                	mv	a0,s1
    8000251e:	f74fe0ef          	jal	80000c92 <release>
            release(&wait_lock);
    80002522:	0000d517          	auipc	a0,0xd
    80002526:	6c650513          	addi	a0,a0,1734 # 8000fbe8 <wait_lock>
    8000252a:	f68fe0ef          	jal	80000c92 <release>
            return -1;
    8000252e:	59fd                	li	s3,-1
    80002530:	bfd1                	j	80002504 <wait+0x74>
    for (pp = proc; pp < &proc[NPROC]; pp++)
    80002532:	3d848493          	addi	s1,s1,984
    80002536:	03348063          	beq	s1,s3,80002556 <wait+0xc6>
      if (pp->parent == p)
    8000253a:	7c9c                	ld	a5,56(s1)
    8000253c:	ff279be3          	bne	a5,s2,80002532 <wait+0xa2>
        acquire(&pp->lock);
    80002540:	8526                	mv	a0,s1
    80002542:	ebcfe0ef          	jal	80000bfe <acquire>
        if (pp->state == ZOMBIE)
    80002546:	4c9c                	lw	a5,24(s1)
    80002548:	f94784e3          	beq	a5,s4,800024d0 <wait+0x40>
        release(&pp->lock);
    8000254c:	8526                	mv	a0,s1
    8000254e:	f44fe0ef          	jal	80000c92 <release>
        havekids = 1;
    80002552:	8756                	mv	a4,s5
    80002554:	bff9                	j	80002532 <wait+0xa2>
    if (!havekids || killed(p))
    80002556:	cf19                	beqz	a4,80002574 <wait+0xe4>
    80002558:	854a                	mv	a0,s2
    8000255a:	f0dff0ef          	jal	80002466 <killed>
    8000255e:	e919                	bnez	a0,80002574 <wait+0xe4>
    sleep(p, &wait_lock); // DOC: wait-sleep
    80002560:	85de                	mv	a1,s7
    80002562:	854a                	mv	a0,s2
    80002564:	ccbff0ef          	jal	8000222e <sleep>
    havekids = 0;
    80002568:	4701                	li	a4,0
    for (pp = proc; pp < &proc[NPROC]; pp++)
    8000256a:	0000e497          	auipc	s1,0xe
    8000256e:	a9648493          	addi	s1,s1,-1386 # 80010000 <proc>
    80002572:	b7e1                	j	8000253a <wait+0xaa>
      release(&wait_lock);
    80002574:	0000d517          	auipc	a0,0xd
    80002578:	67450513          	addi	a0,a0,1652 # 8000fbe8 <wait_lock>
    8000257c:	f16fe0ef          	jal	80000c92 <release>
      return -1;
    80002580:	59fd                	li	s3,-1
    80002582:	b749                	j	80002504 <wait+0x74>

0000000080002584 <either_copyout>:

// Copy to either a user address, or kernel address,
// depending on usr_dst.
// Returns 0 on success, -1 on error.
int either_copyout(int user_dst, uint64 dst, void *src, uint64 len)
{
    80002584:	7179                	addi	sp,sp,-48
    80002586:	f406                	sd	ra,40(sp)
    80002588:	f022                	sd	s0,32(sp)
    8000258a:	ec26                	sd	s1,24(sp)
    8000258c:	e84a                	sd	s2,16(sp)
    8000258e:	e44e                	sd	s3,8(sp)
    80002590:	e052                	sd	s4,0(sp)
    80002592:	1800                	addi	s0,sp,48
    80002594:	84aa                	mv	s1,a0
    80002596:	892e                	mv	s2,a1
    80002598:	89b2                	mv	s3,a2
    8000259a:	8a36                	mv	s4,a3
  struct proc *p = myproc();
    8000259c:	b40ff0ef          	jal	800018dc <myproc>
  if (user_dst)
    800025a0:	cc99                	beqz	s1,800025be <either_copyout+0x3a>
  {
    return copyout(p->pagetable, dst, src, len);
    800025a2:	86d2                	mv	a3,s4
    800025a4:	864e                	mv	a2,s3
    800025a6:	85ca                	mv	a1,s2
    800025a8:	6928                	ld	a0,80(a0)
    800025aa:	fdbfe0ef          	jal	80001584 <copyout>
  else
  {
    memmove((char *)dst, src, len);
    return 0;
  }
}
    800025ae:	70a2                	ld	ra,40(sp)
    800025b0:	7402                	ld	s0,32(sp)
    800025b2:	64e2                	ld	s1,24(sp)
    800025b4:	6942                	ld	s2,16(sp)
    800025b6:	69a2                	ld	s3,8(sp)
    800025b8:	6a02                	ld	s4,0(sp)
    800025ba:	6145                	addi	sp,sp,48
    800025bc:	8082                	ret
    memmove((char *)dst, src, len);
    800025be:	000a061b          	sext.w	a2,s4
    800025c2:	85ce                	mv	a1,s3
    800025c4:	854a                	mv	a0,s2
    800025c6:	f6cfe0ef          	jal	80000d32 <memmove>
    return 0;
    800025ca:	8526                	mv	a0,s1
    800025cc:	b7cd                	j	800025ae <either_copyout+0x2a>

00000000800025ce <either_copyin>:

// Copy from either a user address, or kernel address,
// depending on usr_src.
// Returns 0 on success, -1 on error.
int either_copyin(void *dst, int user_src, uint64 src, uint64 len)
{
    800025ce:	7179                	addi	sp,sp,-48
    800025d0:	f406                	sd	ra,40(sp)
    800025d2:	f022                	sd	s0,32(sp)
    800025d4:	ec26                	sd	s1,24(sp)
    800025d6:	e84a                	sd	s2,16(sp)
    800025d8:	e44e                	sd	s3,8(sp)
    800025da:	e052                	sd	s4,0(sp)
    800025dc:	1800                	addi	s0,sp,48
    800025de:	892a                	mv	s2,a0
    800025e0:	84ae                	mv	s1,a1
    800025e2:	89b2                	mv	s3,a2
    800025e4:	8a36                	mv	s4,a3
  struct proc *p = myproc();
    800025e6:	af6ff0ef          	jal	800018dc <myproc>
  if (user_src)
    800025ea:	cc99                	beqz	s1,80002608 <either_copyin+0x3a>
  {
    return copyin(p->pagetable, dst, src, len);
    800025ec:	86d2                	mv	a3,s4
    800025ee:	864e                	mv	a2,s3
    800025f0:	85ca                	mv	a1,s2
    800025f2:	6928                	ld	a0,80(a0)
    800025f4:	840ff0ef          	jal	80001634 <copyin>
  else
  {
    memmove(dst, (char *)src, len);
    return 0;
  }
}
    800025f8:	70a2                	ld	ra,40(sp)
    800025fa:	7402                	ld	s0,32(sp)
    800025fc:	64e2                	ld	s1,24(sp)
    800025fe:	6942                	ld	s2,16(sp)
    80002600:	69a2                	ld	s3,8(sp)
    80002602:	6a02                	ld	s4,0(sp)
    80002604:	6145                	addi	sp,sp,48
    80002606:	8082                	ret
    memmove(dst, (char *)src, len);
    80002608:	000a061b          	sext.w	a2,s4
    8000260c:	85ce                	mv	a1,s3
    8000260e:	854a                	mv	a0,s2
    80002610:	f22fe0ef          	jal	80000d32 <memmove>
    return 0;
    80002614:	8526                	mv	a0,s1
    80002616:	b7cd                	j	800025f8 <either_copyin+0x2a>

0000000080002618 <procdump>:

// Print a process listing to console.  For debugging.
// Runs when user types ^P on console.
// No lock to avoid wedging a stuck machine further.
void procdump(void)
{
    80002618:	715d                	addi	sp,sp,-80
    8000261a:	e486                	sd	ra,72(sp)
    8000261c:	e0a2                	sd	s0,64(sp)
    8000261e:	fc26                	sd	s1,56(sp)
    80002620:	f84a                	sd	s2,48(sp)
    80002622:	f44e                	sd	s3,40(sp)
    80002624:	f052                	sd	s4,32(sp)
    80002626:	ec56                	sd	s5,24(sp)
    80002628:	e85a                	sd	s6,16(sp)
    8000262a:	e45e                	sd	s7,8(sp)
    8000262c:	0880                	addi	s0,sp,80
      [RUNNING] "run   ",
      [ZOMBIE] "zombie"};
  struct proc *p;
  char *state;

  printf("\n");
    8000262e:	00005517          	auipc	a0,0x5
    80002632:	a4a50513          	addi	a0,a0,-1462 # 80007078 <etext+0x78>
    80002636:	e99fd0ef          	jal	800004ce <printf>
  for (p = proc; p < &proc[NPROC]; p++)
    8000263a:	0000e497          	auipc	s1,0xe
    8000263e:	b1e48493          	addi	s1,s1,-1250 # 80010158 <proc+0x158>
    80002642:	0001d917          	auipc	s2,0x1d
    80002646:	11690913          	addi	s2,s2,278 # 8001f758 <bcache+0x140>
  {
    if (p->state == UNUSED)
      continue;
    if (p->state >= 0 && p->state < NELEM(states) && states[p->state])
    8000264a:	4b15                	li	s6,5
      state = states[p->state];
    else
      state = "???";
    8000264c:	00005997          	auipc	s3,0x5
    80002650:	c5498993          	addi	s3,s3,-940 # 800072a0 <etext+0x2a0>
    printf("%d %s %s", p->pid, state, p->name);
    80002654:	00005a97          	auipc	s5,0x5
    80002658:	c54a8a93          	addi	s5,s5,-940 # 800072a8 <etext+0x2a8>
    printf("\n");
    8000265c:	00005a17          	auipc	s4,0x5
    80002660:	a1ca0a13          	addi	s4,s4,-1508 # 80007078 <etext+0x78>
    if (p->state >= 0 && p->state < NELEM(states) && states[p->state])
    80002664:	00005b97          	auipc	s7,0x5
    80002668:	1e4b8b93          	addi	s7,s7,484 # 80007848 <syscall_names>
    8000266c:	a829                	j	80002686 <procdump+0x6e>
    printf("%d %s %s", p->pid, state, p->name);
    8000266e:	ed86a583          	lw	a1,-296(a3)
    80002672:	8556                	mv	a0,s5
    80002674:	e5bfd0ef          	jal	800004ce <printf>
    printf("\n");
    80002678:	8552                	mv	a0,s4
    8000267a:	e55fd0ef          	jal	800004ce <printf>
  for (p = proc; p < &proc[NPROC]; p++)
    8000267e:	3d848493          	addi	s1,s1,984
    80002682:	03248263          	beq	s1,s2,800026a6 <procdump+0x8e>
    if (p->state == UNUSED)
    80002686:	86a6                	mv	a3,s1
    80002688:	ec04a783          	lw	a5,-320(s1)
    8000268c:	dbed                	beqz	a5,8000267e <procdump+0x66>
      state = "???";
    8000268e:	864e                	mv	a2,s3
    if (p->state >= 0 && p->state < NELEM(states) && states[p->state])
    80002690:	fcfb6fe3          	bltu	s6,a5,8000266e <procdump+0x56>
    80002694:	02079713          	slli	a4,a5,0x20
    80002698:	01d75793          	srli	a5,a4,0x1d
    8000269c:	97de                	add	a5,a5,s7
    8000269e:	67f0                	ld	a2,200(a5)
    800026a0:	f679                	bnez	a2,8000266e <procdump+0x56>
      state = "???";
    800026a2:	864e                	mv	a2,s3
    800026a4:	b7e9                	j	8000266e <procdump+0x56>
  }
}
    800026a6:	60a6                	ld	ra,72(sp)
    800026a8:	6406                	ld	s0,64(sp)
    800026aa:	74e2                	ld	s1,56(sp)
    800026ac:	7942                	ld	s2,48(sp)
    800026ae:	79a2                	ld	s3,40(sp)
    800026b0:	7a02                	ld	s4,32(sp)
    800026b2:	6ae2                	ld	s5,24(sp)
    800026b4:	6b42                	ld	s6,16(sp)
    800026b6:	6ba2                	ld	s7,8(sp)
    800026b8:	6161                	addi	sp,sp,80
    800026ba:	8082                	ret

00000000800026bc <swtch>:
    800026bc:	00153023          	sd	ra,0(a0)
    800026c0:	00253423          	sd	sp,8(a0)
    800026c4:	e900                	sd	s0,16(a0)
    800026c6:	ed04                	sd	s1,24(a0)
    800026c8:	03253023          	sd	s2,32(a0)
    800026cc:	03353423          	sd	s3,40(a0)
    800026d0:	03453823          	sd	s4,48(a0)
    800026d4:	03553c23          	sd	s5,56(a0)
    800026d8:	05653023          	sd	s6,64(a0)
    800026dc:	05753423          	sd	s7,72(a0)
    800026e0:	05853823          	sd	s8,80(a0)
    800026e4:	05953c23          	sd	s9,88(a0)
    800026e8:	07a53023          	sd	s10,96(a0)
    800026ec:	07b53423          	sd	s11,104(a0)
    800026f0:	0005b083          	ld	ra,0(a1)
    800026f4:	0085b103          	ld	sp,8(a1)
    800026f8:	6980                	ld	s0,16(a1)
    800026fa:	6d84                	ld	s1,24(a1)
    800026fc:	0205b903          	ld	s2,32(a1)
    80002700:	0285b983          	ld	s3,40(a1)
    80002704:	0305ba03          	ld	s4,48(a1)
    80002708:	0385ba83          	ld	s5,56(a1)
    8000270c:	0405bb03          	ld	s6,64(a1)
    80002710:	0485bb83          	ld	s7,72(a1)
    80002714:	0505bc03          	ld	s8,80(a1)
    80002718:	0585bc83          	ld	s9,88(a1)
    8000271c:	0605bd03          	ld	s10,96(a1)
    80002720:	0685bd83          	ld	s11,104(a1)
    80002724:	8082                	ret

0000000080002726 <trapinit>:

extern int devintr();

void
trapinit(void)
{
    80002726:	1141                	addi	sp,sp,-16
    80002728:	e406                	sd	ra,8(sp)
    8000272a:	e022                	sd	s0,0(sp)
    8000272c:	0800                	addi	s0,sp,16
  initlock(&tickslock, "time");
    8000272e:	00005597          	auipc	a1,0x5
    80002732:	c8258593          	addi	a1,a1,-894 # 800073b0 <etext+0x3b0>
    80002736:	0001d517          	auipc	a0,0x1d
    8000273a:	eca50513          	addi	a0,a0,-310 # 8001f600 <tickslock>
    8000273e:	c3cfe0ef          	jal	80000b7a <initlock>
}
    80002742:	60a2                	ld	ra,8(sp)
    80002744:	6402                	ld	s0,0(sp)
    80002746:	0141                	addi	sp,sp,16
    80002748:	8082                	ret

000000008000274a <trapinithart>:

// set up to take exceptions and traps while in the kernel.
void
trapinithart(void)
{
    8000274a:	1141                	addi	sp,sp,-16
    8000274c:	e406                	sd	ra,8(sp)
    8000274e:	e022                	sd	s0,0(sp)
    80002750:	0800                	addi	s0,sp,16
  asm volatile("csrw stvec, %0" : : "r" (x));
    80002752:	00003797          	auipc	a5,0x3
    80002756:	04e78793          	addi	a5,a5,78 # 800057a0 <kernelvec>
    8000275a:	10579073          	csrw	stvec,a5
  w_stvec((uint64)kernelvec);
}
    8000275e:	60a2                	ld	ra,8(sp)
    80002760:	6402                	ld	s0,0(sp)
    80002762:	0141                	addi	sp,sp,16
    80002764:	8082                	ret

0000000080002766 <usertrapret>:
//
// return to user space
//
void
usertrapret(void)
{
    80002766:	1141                	addi	sp,sp,-16
    80002768:	e406                	sd	ra,8(sp)
    8000276a:	e022                	sd	s0,0(sp)
    8000276c:	0800                	addi	s0,sp,16
  struct proc *p = myproc();
    8000276e:	96eff0ef          	jal	800018dc <myproc>
  asm volatile("csrr %0, sstatus" : "=r" (x) );
    80002772:	100027f3          	csrr	a5,sstatus
  w_sstatus(r_sstatus() & ~SSTATUS_SIE);
    80002776:	9bf5                	andi	a5,a5,-3
  asm volatile("csrw sstatus, %0" : : "r" (x));
    80002778:	10079073          	csrw	sstatus,a5
  // kerneltrap() to usertrap(), so turn off interrupts until
  // we're back in user space, where usertrap() is correct.
  intr_off();

  // send syscalls, interrupts, and exceptions to uservec in trampoline.S
  uint64 trampoline_uservec = TRAMPOLINE + (uservec - trampoline);
    8000277c:	00004697          	auipc	a3,0x4
    80002780:	88468693          	addi	a3,a3,-1916 # 80006000 <_trampoline>
    80002784:	00004717          	auipc	a4,0x4
    80002788:	87c70713          	addi	a4,a4,-1924 # 80006000 <_trampoline>
    8000278c:	8f15                	sub	a4,a4,a3
    8000278e:	040007b7          	lui	a5,0x4000
    80002792:	17fd                	addi	a5,a5,-1 # 3ffffff <_entry-0x7c000001>
    80002794:	07b2                	slli	a5,a5,0xc
    80002796:	973e                	add	a4,a4,a5
  asm volatile("csrw stvec, %0" : : "r" (x));
    80002798:	10571073          	csrw	stvec,a4
  w_stvec(trampoline_uservec);

  // set up trapframe values that uservec will need when
  // the process next traps into the kernel.
  p->trapframe->kernel_satp = r_satp();         // kernel page table
    8000279c:	6d38                	ld	a4,88(a0)
  asm volatile("csrr %0, satp" : "=r" (x) );
    8000279e:	18002673          	csrr	a2,satp
    800027a2:	e310                	sd	a2,0(a4)
  p->trapframe->kernel_sp = p->kstack + PGSIZE; // process's kernel stack
    800027a4:	6d30                	ld	a2,88(a0)
    800027a6:	6138                	ld	a4,64(a0)
    800027a8:	6585                	lui	a1,0x1
    800027aa:	972e                	add	a4,a4,a1
    800027ac:	e618                	sd	a4,8(a2)
  p->trapframe->kernel_trap = (uint64)usertrap;
    800027ae:	6d38                	ld	a4,88(a0)
    800027b0:	00000617          	auipc	a2,0x0
    800027b4:	11060613          	addi	a2,a2,272 # 800028c0 <usertrap>
    800027b8:	eb10                	sd	a2,16(a4)
  p->trapframe->kernel_hartid = r_tp();         // hartid for cpuid()
    800027ba:	6d38                	ld	a4,88(a0)
  asm volatile("mv %0, tp" : "=r" (x) );
    800027bc:	8612                	mv	a2,tp
    800027be:	f310                	sd	a2,32(a4)
  asm volatile("csrr %0, sstatus" : "=r" (x) );
    800027c0:	10002773          	csrr	a4,sstatus
  // set up the registers that trampoline.S's sret will use
  // to get to user space.
  
  // set S Previous Privilege mode to User.
  unsigned long x = r_sstatus();
  x &= ~SSTATUS_SPP; // clear SPP to 0 for user mode
    800027c4:	eff77713          	andi	a4,a4,-257
  x |= SSTATUS_SPIE; // enable interrupts in user mode
    800027c8:	02076713          	ori	a4,a4,32
  asm volatile("csrw sstatus, %0" : : "r" (x));
    800027cc:	10071073          	csrw	sstatus,a4
  w_sstatus(x);

  // set S Exception Program Counter to the saved user pc.
  w_sepc(p->trapframe->epc);
    800027d0:	6d38                	ld	a4,88(a0)
  asm volatile("csrw sepc, %0" : : "r" (x));
    800027d2:	6f18                	ld	a4,24(a4)
    800027d4:	14171073          	csrw	sepc,a4

  // tell trampoline.S the user page table to switch to.
  uint64 satp = MAKE_SATP(p->pagetable);
    800027d8:	6928                	ld	a0,80(a0)
    800027da:	8131                	srli	a0,a0,0xc

  // jump to userret in trampoline.S at the top of memory, which 
  // switches to the user page table, restores user registers,
  // and switches to user mode with sret.
  uint64 trampoline_userret = TRAMPOLINE + (userret - trampoline);
    800027dc:	00004717          	auipc	a4,0x4
    800027e0:	8c070713          	addi	a4,a4,-1856 # 8000609c <userret>
    800027e4:	8f15                	sub	a4,a4,a3
    800027e6:	97ba                	add	a5,a5,a4
  ((void (*)(uint64))trampoline_userret)(satp);
    800027e8:	577d                	li	a4,-1
    800027ea:	177e                	slli	a4,a4,0x3f
    800027ec:	8d59                	or	a0,a0,a4
    800027ee:	9782                	jalr	a5
}
    800027f0:	60a2                	ld	ra,8(sp)
    800027f2:	6402                	ld	s0,0(sp)
    800027f4:	0141                	addi	sp,sp,16
    800027f6:	8082                	ret

00000000800027f8 <clockintr>:
  w_sstatus(sstatus);
}

void
clockintr()
{
    800027f8:	1101                	addi	sp,sp,-32
    800027fa:	ec06                	sd	ra,24(sp)
    800027fc:	e822                	sd	s0,16(sp)
    800027fe:	1000                	addi	s0,sp,32
  if(cpuid() == 0){
    80002800:	8a8ff0ef          	jal	800018a8 <cpuid>
    80002804:	cd11                	beqz	a0,80002820 <clockintr+0x28>
  asm volatile("csrr %0, time" : "=r" (x) );
    80002806:	c01027f3          	rdtime	a5
  }

  // ask for the next timer interrupt. this also clears
  // the interrupt request. 1000000 is about a tenth
  // of a second.
  w_stimecmp(r_time() + 1000000);
    8000280a:	000f4737          	lui	a4,0xf4
    8000280e:	24070713          	addi	a4,a4,576 # f4240 <_entry-0x7ff0bdc0>
    80002812:	97ba                	add	a5,a5,a4
  asm volatile("csrw 0x14d, %0" : : "r" (x));
    80002814:	14d79073          	csrw	stimecmp,a5
}
    80002818:	60e2                	ld	ra,24(sp)
    8000281a:	6442                	ld	s0,16(sp)
    8000281c:	6105                	addi	sp,sp,32
    8000281e:	8082                	ret
    80002820:	e426                	sd	s1,8(sp)
    acquire(&tickslock);
    80002822:	0001d497          	auipc	s1,0x1d
    80002826:	dde48493          	addi	s1,s1,-546 # 8001f600 <tickslock>
    8000282a:	8526                	mv	a0,s1
    8000282c:	bd2fe0ef          	jal	80000bfe <acquire>
    ticks++;
    80002830:	00005517          	auipc	a0,0x5
    80002834:	27850513          	addi	a0,a0,632 # 80007aa8 <ticks>
    80002838:	411c                	lw	a5,0(a0)
    8000283a:	2785                	addiw	a5,a5,1
    8000283c:	c11c                	sw	a5,0(a0)
    wakeup(&ticks);
    8000283e:	a3dff0ef          	jal	8000227a <wakeup>
    release(&tickslock);
    80002842:	8526                	mv	a0,s1
    80002844:	c4efe0ef          	jal	80000c92 <release>
    80002848:	64a2                	ld	s1,8(sp)
    8000284a:	bf75                	j	80002806 <clockintr+0xe>

000000008000284c <devintr>:
// returns 2 if timer interrupt,
// 1 if other device,
// 0 if not recognized.
int
devintr()
{
    8000284c:	1101                	addi	sp,sp,-32
    8000284e:	ec06                	sd	ra,24(sp)
    80002850:	e822                	sd	s0,16(sp)
    80002852:	1000                	addi	s0,sp,32
  asm volatile("csrr %0, scause" : "=r" (x) );
    80002854:	14202773          	csrr	a4,scause
  uint64 scause = r_scause();

  if(scause == 0x8000000000000009L){
    80002858:	57fd                	li	a5,-1
    8000285a:	17fe                	slli	a5,a5,0x3f
    8000285c:	07a5                	addi	a5,a5,9
    8000285e:	00f70c63          	beq	a4,a5,80002876 <devintr+0x2a>
    // now allowed to interrupt again.
    if(irq)
      plic_complete(irq);

    return 1;
  } else if(scause == 0x8000000000000005L){
    80002862:	57fd                	li	a5,-1
    80002864:	17fe                	slli	a5,a5,0x3f
    80002866:	0795                	addi	a5,a5,5
    // timer interrupt.
    clockintr();
    return 2;
  } else {
    return 0;
    80002868:	4501                	li	a0,0
  } else if(scause == 0x8000000000000005L){
    8000286a:	04f70763          	beq	a4,a5,800028b8 <devintr+0x6c>
  }
}
    8000286e:	60e2                	ld	ra,24(sp)
    80002870:	6442                	ld	s0,16(sp)
    80002872:	6105                	addi	sp,sp,32
    80002874:	8082                	ret
    80002876:	e426                	sd	s1,8(sp)
    int irq = plic_claim();
    80002878:	7d5020ef          	jal	8000584c <plic_claim>
    8000287c:	84aa                	mv	s1,a0
    if(irq == UART0_IRQ){
    8000287e:	47a9                	li	a5,10
    80002880:	00f50963          	beq	a0,a5,80002892 <devintr+0x46>
    } else if(irq == VIRTIO0_IRQ){
    80002884:	4785                	li	a5,1
    80002886:	00f50963          	beq	a0,a5,80002898 <devintr+0x4c>
    return 1;
    8000288a:	4505                	li	a0,1
    } else if(irq){
    8000288c:	e889                	bnez	s1,8000289e <devintr+0x52>
    8000288e:	64a2                	ld	s1,8(sp)
    80002890:	bff9                	j	8000286e <devintr+0x22>
      uartintr();
    80002892:	97afe0ef          	jal	80000a0c <uartintr>
    if(irq)
    80002896:	a819                	j	800028ac <devintr+0x60>
      virtio_disk_intr();
    80002898:	444030ef          	jal	80005cdc <virtio_disk_intr>
    if(irq)
    8000289c:	a801                	j	800028ac <devintr+0x60>
      printf("unexpected interrupt irq=%d\n", irq);
    8000289e:	85a6                	mv	a1,s1
    800028a0:	00005517          	auipc	a0,0x5
    800028a4:	b1850513          	addi	a0,a0,-1256 # 800073b8 <etext+0x3b8>
    800028a8:	c27fd0ef          	jal	800004ce <printf>
      plic_complete(irq);
    800028ac:	8526                	mv	a0,s1
    800028ae:	7bf020ef          	jal	8000586c <plic_complete>
    return 1;
    800028b2:	4505                	li	a0,1
    800028b4:	64a2                	ld	s1,8(sp)
    800028b6:	bf65                	j	8000286e <devintr+0x22>
    clockintr();
    800028b8:	f41ff0ef          	jal	800027f8 <clockintr>
    return 2;
    800028bc:	4509                	li	a0,2
    800028be:	bf45                	j	8000286e <devintr+0x22>

00000000800028c0 <usertrap>:
{
    800028c0:	1101                	addi	sp,sp,-32
    800028c2:	ec06                	sd	ra,24(sp)
    800028c4:	e822                	sd	s0,16(sp)
    800028c6:	e426                	sd	s1,8(sp)
    800028c8:	e04a                	sd	s2,0(sp)
    800028ca:	1000                	addi	s0,sp,32
  asm volatile("csrr %0, sstatus" : "=r" (x) );
    800028cc:	100027f3          	csrr	a5,sstatus
  if((r_sstatus() & SSTATUS_SPP) != 0)
    800028d0:	1007f793          	andi	a5,a5,256
    800028d4:	ef85                	bnez	a5,8000290c <usertrap+0x4c>
  asm volatile("csrw stvec, %0" : : "r" (x));
    800028d6:	00003797          	auipc	a5,0x3
    800028da:	eca78793          	addi	a5,a5,-310 # 800057a0 <kernelvec>
    800028de:	10579073          	csrw	stvec,a5
  struct proc *p = myproc();
    800028e2:	ffbfe0ef          	jal	800018dc <myproc>
    800028e6:	84aa                	mv	s1,a0
  p->trapframe->epc = r_sepc();
    800028e8:	6d3c                	ld	a5,88(a0)
  asm volatile("csrr %0, sepc" : "=r" (x) );
    800028ea:	14102773          	csrr	a4,sepc
    800028ee:	ef98                	sd	a4,24(a5)
  asm volatile("csrr %0, scause" : "=r" (x) );
    800028f0:	14202773          	csrr	a4,scause
  if(r_scause() == 8){
    800028f4:	47a1                	li	a5,8
    800028f6:	02f70163          	beq	a4,a5,80002918 <usertrap+0x58>
  } else if((which_dev = devintr()) != 0){
    800028fa:	f53ff0ef          	jal	8000284c <devintr>
    800028fe:	892a                	mv	s2,a0
    80002900:	c135                	beqz	a0,80002964 <usertrap+0xa4>
  if(killed(p))
    80002902:	8526                	mv	a0,s1
    80002904:	b63ff0ef          	jal	80002466 <killed>
    80002908:	cd1d                	beqz	a0,80002946 <usertrap+0x86>
    8000290a:	a81d                	j	80002940 <usertrap+0x80>
    panic("usertrap: not from user mode");
    8000290c:	00005517          	auipc	a0,0x5
    80002910:	acc50513          	addi	a0,a0,-1332 # 800073d8 <etext+0x3d8>
    80002914:	e8bfd0ef          	jal	8000079e <panic>
    if(killed(p))
    80002918:	b4fff0ef          	jal	80002466 <killed>
    8000291c:	e121                	bnez	a0,8000295c <usertrap+0x9c>
    p->trapframe->epc += 4;
    8000291e:	6cb8                	ld	a4,88(s1)
    80002920:	6f1c                	ld	a5,24(a4)
    80002922:	0791                	addi	a5,a5,4
    80002924:	ef1c                	sd	a5,24(a4)
  asm volatile("csrr %0, sstatus" : "=r" (x) );
    80002926:	100027f3          	csrr	a5,sstatus
  w_sstatus(r_sstatus() | SSTATUS_SIE);
    8000292a:	0027e793          	ori	a5,a5,2
  asm volatile("csrw sstatus, %0" : : "r" (x));
    8000292e:	10079073          	csrw	sstatus,a5
    syscall();
    80002932:	240000ef          	jal	80002b72 <syscall>
  if(killed(p))
    80002936:	8526                	mv	a0,s1
    80002938:	b2fff0ef          	jal	80002466 <killed>
    8000293c:	c901                	beqz	a0,8000294c <usertrap+0x8c>
    8000293e:	4901                	li	s2,0
    exit(-1);
    80002940:	557d                	li	a0,-1
    80002942:	9f9ff0ef          	jal	8000233a <exit>
  if(which_dev == 2)
    80002946:	4789                	li	a5,2
    80002948:	04f90563          	beq	s2,a5,80002992 <usertrap+0xd2>
  usertrapret();
    8000294c:	e1bff0ef          	jal	80002766 <usertrapret>
}
    80002950:	60e2                	ld	ra,24(sp)
    80002952:	6442                	ld	s0,16(sp)
    80002954:	64a2                	ld	s1,8(sp)
    80002956:	6902                	ld	s2,0(sp)
    80002958:	6105                	addi	sp,sp,32
    8000295a:	8082                	ret
      exit(-1);
    8000295c:	557d                	li	a0,-1
    8000295e:	9ddff0ef          	jal	8000233a <exit>
    80002962:	bf75                	j	8000291e <usertrap+0x5e>
  asm volatile("csrr %0, scause" : "=r" (x) );
    80002964:	142025f3          	csrr	a1,scause
    printf("usertrap(): unexpected scause 0x%lx pid=%d\n", r_scause(), p->pid);
    80002968:	5890                	lw	a2,48(s1)
    8000296a:	00005517          	auipc	a0,0x5
    8000296e:	a8e50513          	addi	a0,a0,-1394 # 800073f8 <etext+0x3f8>
    80002972:	b5dfd0ef          	jal	800004ce <printf>
  asm volatile("csrr %0, sepc" : "=r" (x) );
    80002976:	141025f3          	csrr	a1,sepc
  asm volatile("csrr %0, stval" : "=r" (x) );
    8000297a:	14302673          	csrr	a2,stval
    printf("            sepc=0x%lx stval=0x%lx\n", r_sepc(), r_stval());
    8000297e:	00005517          	auipc	a0,0x5
    80002982:	aaa50513          	addi	a0,a0,-1366 # 80007428 <etext+0x428>
    80002986:	b49fd0ef          	jal	800004ce <printf>
    setkilled(p);
    8000298a:	8526                	mv	a0,s1
    8000298c:	ab7ff0ef          	jal	80002442 <setkilled>
    80002990:	b75d                	j	80002936 <usertrap+0x76>
    yield();
    80002992:	871ff0ef          	jal	80002202 <yield>
    80002996:	bf5d                	j	8000294c <usertrap+0x8c>

0000000080002998 <kerneltrap>:
{
    80002998:	7179                	addi	sp,sp,-48
    8000299a:	f406                	sd	ra,40(sp)
    8000299c:	f022                	sd	s0,32(sp)
    8000299e:	ec26                	sd	s1,24(sp)
    800029a0:	e84a                	sd	s2,16(sp)
    800029a2:	e44e                	sd	s3,8(sp)
    800029a4:	1800                	addi	s0,sp,48
  asm volatile("csrr %0, sepc" : "=r" (x) );
    800029a6:	14102973          	csrr	s2,sepc
  asm volatile("csrr %0, sstatus" : "=r" (x) );
    800029aa:	100024f3          	csrr	s1,sstatus
  asm volatile("csrr %0, scause" : "=r" (x) );
    800029ae:	142029f3          	csrr	s3,scause
  if((sstatus & SSTATUS_SPP) == 0)
    800029b2:	1004f793          	andi	a5,s1,256
    800029b6:	c795                	beqz	a5,800029e2 <kerneltrap+0x4a>
  asm volatile("csrr %0, sstatus" : "=r" (x) );
    800029b8:	100027f3          	csrr	a5,sstatus
  return (x & SSTATUS_SIE) != 0;
    800029bc:	8b89                	andi	a5,a5,2
  if(intr_get() != 0)
    800029be:	eb85                	bnez	a5,800029ee <kerneltrap+0x56>
  if((which_dev = devintr()) == 0){
    800029c0:	e8dff0ef          	jal	8000284c <devintr>
    800029c4:	c91d                	beqz	a0,800029fa <kerneltrap+0x62>
  if(which_dev == 2 && myproc() != 0)
    800029c6:	4789                	li	a5,2
    800029c8:	04f50a63          	beq	a0,a5,80002a1c <kerneltrap+0x84>
  asm volatile("csrw sepc, %0" : : "r" (x));
    800029cc:	14191073          	csrw	sepc,s2
  asm volatile("csrw sstatus, %0" : : "r" (x));
    800029d0:	10049073          	csrw	sstatus,s1
}
    800029d4:	70a2                	ld	ra,40(sp)
    800029d6:	7402                	ld	s0,32(sp)
    800029d8:	64e2                	ld	s1,24(sp)
    800029da:	6942                	ld	s2,16(sp)
    800029dc:	69a2                	ld	s3,8(sp)
    800029de:	6145                	addi	sp,sp,48
    800029e0:	8082                	ret
    panic("kerneltrap: not from supervisor mode");
    800029e2:	00005517          	auipc	a0,0x5
    800029e6:	a6e50513          	addi	a0,a0,-1426 # 80007450 <etext+0x450>
    800029ea:	db5fd0ef          	jal	8000079e <panic>
    panic("kerneltrap: interrupts enabled");
    800029ee:	00005517          	auipc	a0,0x5
    800029f2:	a8a50513          	addi	a0,a0,-1398 # 80007478 <etext+0x478>
    800029f6:	da9fd0ef          	jal	8000079e <panic>
  asm volatile("csrr %0, sepc" : "=r" (x) );
    800029fa:	14102673          	csrr	a2,sepc
  asm volatile("csrr %0, stval" : "=r" (x) );
    800029fe:	143026f3          	csrr	a3,stval
    printf("scause=0x%lx sepc=0x%lx stval=0x%lx\n", scause, r_sepc(), r_stval());
    80002a02:	85ce                	mv	a1,s3
    80002a04:	00005517          	auipc	a0,0x5
    80002a08:	a9450513          	addi	a0,a0,-1388 # 80007498 <etext+0x498>
    80002a0c:	ac3fd0ef          	jal	800004ce <printf>
    panic("kerneltrap");
    80002a10:	00005517          	auipc	a0,0x5
    80002a14:	ab050513          	addi	a0,a0,-1360 # 800074c0 <etext+0x4c0>
    80002a18:	d87fd0ef          	jal	8000079e <panic>
  if(which_dev == 2 && myproc() != 0)
    80002a1c:	ec1fe0ef          	jal	800018dc <myproc>
    80002a20:	d555                	beqz	a0,800029cc <kerneltrap+0x34>
    yield();
    80002a22:	fe0ff0ef          	jal	80002202 <yield>
    80002a26:	b75d                	j	800029cc <kerneltrap+0x34>

0000000080002a28 <argraw>:
  return strlen(buf);
}

static uint64
argraw(int n)
{
    80002a28:	1101                	addi	sp,sp,-32
    80002a2a:	ec06                	sd	ra,24(sp)
    80002a2c:	e822                	sd	s0,16(sp)
    80002a2e:	e426                	sd	s1,8(sp)
    80002a30:	1000                	addi	s0,sp,32
    80002a32:	84aa                	mv	s1,a0
  struct proc *p = myproc();
    80002a34:	ea9fe0ef          	jal	800018dc <myproc>
  switch (n) {
    80002a38:	4795                	li	a5,5
    80002a3a:	0497e163          	bltu	a5,s1,80002a7c <argraw+0x54>
    80002a3e:	048a                	slli	s1,s1,0x2
    80002a40:	00005717          	auipc	a4,0x5
    80002a44:	f0070713          	addi	a4,a4,-256 # 80007940 <states.0+0x30>
    80002a48:	94ba                	add	s1,s1,a4
    80002a4a:	409c                	lw	a5,0(s1)
    80002a4c:	97ba                	add	a5,a5,a4
    80002a4e:	8782                	jr	a5
  case 0:
